CCS PCH C Compiler, Version 5.015, 5967               19-May-23 15:25

               Filename:   D:\TTVXL\composite-control\bai_thi_thu_cuoiky.lst

               ROM used:   5132 bytes (16%)
                           Largest free fragment is 27632
               RAM used:   94 (5%) at main() level
                           109 (5%) worst case
               Stack used: 9 locations (8 in main + 1 for interrupts)
               Stack size: 31

*
0000:  GOTO   12BC
*
0008:  MOVWF  04
000A:  MOVFF  FD8,05
000E:  MOVFF  FE0,06
0012:  MOVLB  0
0014:  MOVFF  FE9,0C
0018:  MOVFF  FEA,07
001C:  MOVFF  FE1,08
0020:  MOVFF  FE2,09
0024:  MOVFF  FD9,0A
0028:  MOVFF  FDA,0B
002C:  MOVFF  FF3,12
0030:  MOVFF  FF4,13
0034:  MOVFF  FFA,14
0038:  MOVFF  00,0E
003C:  MOVFF  01,0F
0040:  MOVFF  02,10
0044:  MOVFF  03,11
0048:  BTFSS  F9D.0
004A:  GOTO   0054
004E:  BTFSC  F9E.0
0050:  GOTO   01D4
0054:  MOVFF  0E,00
0058:  MOVFF  0F,01
005C:  MOVFF  10,02
0060:  MOVFF  11,03
0064:  MOVFF  0C,FE9
0068:  MOVFF  07,FEA
006C:  BSF    07.7
006E:  MOVFF  08,FE1
0072:  MOVFF  09,FE2
0076:  MOVFF  0A,FD9
007A:  MOVFF  0B,FDA
007E:  MOVFF  12,FF3
0082:  MOVFF  13,FF4
0086:  MOVFF  14,FFA
008A:  MOVF   04,W
008C:  MOVFF  06,FE0
0090:  MOVFF  05,FD8
0094:  RETFIE 0
.................... #include <tv_pickit2_shift_1_proteus.c> 
.................... #include    <18f4550.h> 
.................... //////////// Standard Header file for the PIC18F4550 device //////////////// 
.................... /////////////////////////////////////////////////////////////////////////// 
.................... ////        (C) Copyright 1996, 2013 Custom Computer Services          //// 
.................... //// This source code may only be used by licensed users of the CCS C  //// 
.................... //// compiler.  This source code may only be distributed to other      //// 
.................... //// licensed users of the CCS C compiler.  No other use, reproduction //// 
.................... //// or distribution is permitted without written permission.          //// 
.................... //// Derivative programs created using this software in object code    //// 
.................... //// form are not restricted in any way.                               //// 
.................... /////////////////////////////////////////////////////////////////////////// 
.................... #device PIC18F4550 
0096:  MOVFF  FF2,0D
009A:  BCF    FF2.7
009C:  CLRF   FF7
009E:  ADDLW  B0
00A0:  MOVWF  FF6
00A2:  MOVLW  00
00A4:  ADDWFC FF7,F
00A6:  TBLRD*+
00A8:  MOVF   FF5,W
00AA:  BTFSC  0D.7
00AC:  BSF    FF2.7
00AE:  RETURN 0
00B0:  DATA C0,F9
00B2:  DATA A4,B0
00B4:  DATA 99,92
00B6:  DATA 82,F8
00B8:  DATA 80,90
00BA:  DATA 88,83
00BC:  DATA C6,A1
00BE:  DATA 86,8E
00C0:  MOVFF  FF2,0D
00C4:  BCF    FF2.7
00C6:  CLRF   FF7
00C8:  ADDLW  DA
00CA:  MOVWF  FF6
00CC:  MOVLW  00
00CE:  ADDWFC FF7,F
00D0:  TBLRD*+
00D2:  MOVF   FF5,W
00D4:  BTFSC  0D.7
00D6:  BSF    FF2.7
00D8:  RETURN 0
00DA:  DATA 7F,BF
00DC:  DATA DF,EF
00DE:  DATA F7,FB
00E0:  DATA FD,FE
00E2:  MOVFF  FF2,0D
00E6:  BCF    FF2.7
00E8:  CLRF   FF7
00EA:  ADDLW  FC
00EC:  MOVWF  FF6
00EE:  MOVLW  00
00F0:  ADDWFC FF7,F
00F2:  TBLRD*+
00F4:  MOVF   FF5,W
00F6:  BTFSC  0D.7
00F8:  BSF    FF2.7
00FA:  RETURN 0
00FC:  DATA 00,01
00FE:  DATA 02,05
0100:  DATA 03,04
0102:  DATA 01,02
0104:  DATA 20,03
0106:  DATA 07,03
0108:  DATA 06,06
010A:  DATA 02,05
010C:  DATA 03,03
010E:  DATA 06,06
0110:  DATA 02,03
0112:  DATA 03,04
0114:  DATA 07,03
0116:  DATA 07,20
0118:  DATA 20,07
011A:  DATA 07,06
011C:  DATA 06,03
011E:  DATA 03,04
0120:  DATA 00,06
0122:  DATA 06,05
0124:  DATA 03,04
0126:  DATA 01,01
0128:  DATA 07,20
012A:  DATA 20,07
012C:  DATA 00,06
012E:  DATA 02,05
0130:  DATA 03,04
0132:  DATA 00,06
0134:  DATA 02,03
0136:  DATA 03,04
0138:  DATA 20,20
013A:  DATA 20,20
013C:  DATA 20,20
013E:  DATA 07,06
0140:  DATA 06,03
0142:  DATA 03,04
0144:  DATA 07,06
0146:  DATA 07,07
0148:  DATA 20,20
014A:  DATA 20,20
014C:  DATA 20,20
014E:  DATA 03,20
0150:  DATA 01,07
0152:  DATA 01,20
0154:  DATA 07,20
0156:  DATA 07,20
0158:  DATA 20,07
015A:  DATA 03,03
015C:  MOVFF  FF2,0D
0160:  BCF    FF2.7
0162:  CLRF   FF7
0164:  ADDLW  76
0166:  MOVWF  FF6
0168:  MOVLW  01
016A:  ADDWFC FF7,F
016C:  TBLRD*+
016E:  MOVF   FF5,W
0170:  BTFSC  0D.7
0172:  BSF    FF2.7
0174:  RETURN 0
0176:  DATA 07,0F
0178:  DATA 1F,1F
017A:  DATA 1F,1F
017C:  DATA 1F,1F
017E:  DATA 1F,1F
0180:  DATA 1F,00
0182:  DATA 00,00
0184:  DATA 00,00
0186:  DATA 1C,1E
0188:  DATA 1F,1F
018A:  DATA 1F,1F
018C:  DATA 1F,1F
018E:  DATA 00,00
0190:  DATA 00,00
0192:  DATA 00,1F
0194:  DATA 1F,1F
0196:  DATA 1F,1F
0198:  DATA 1F,1F
019A:  DATA 1F,1F
019C:  DATA 1E,1C
019E:  DATA 1F,1F
01A0:  DATA 1F,1F
01A2:  DATA 1F,1F
01A4:  DATA 0F,07
01A6:  DATA 1F,1F
01A8:  DATA 1F,00
01AA:  DATA 00,00
01AC:  DATA 1F,1F
01AE:  DATA 1F,1F
01B0:  DATA 1F,1F
01B2:  DATA 1F,1F
01B4:  DATA 1F,1F
01B6:  MOVFF  FF2,0D
01BA:  BCF    FF2.7
01BC:  CLRF   FF7
01BE:  ADDLW  D0
01C0:  MOVWF  FF6
01C2:  MOVLW  01
01C4:  ADDWFC FF7,F
01C6:  TBLRD*+
01C8:  MOVF   FF5,W
01CA:  BTFSC  0D.7
01CC:  BSF    FF2.7
01CE:  RETURN 0
01D0:  DATA 80,C0
01D2:  DATA 94,D4
*
06D2:  MOVLW  8E
06D4:  MOVWF  00
06D6:  MOVFF  5E,01
06DA:  MOVFF  5D,02
06DE:  CLRF   03
06E0:  MOVF   01,F
06E2:  BNZ   06F6
06E4:  MOVFF  02,01
06E8:  CLRF   02
06EA:  MOVLW  08
06EC:  SUBWF  00,F
06EE:  MOVF   01,F
06F0:  BNZ   06F6
06F2:  CLRF   00
06F4:  BRA    0706
06F6:  BCF    FD8.0
06F8:  BTFSC  01.7
06FA:  BRA    0704
06FC:  RLCF   02,F
06FE:  RLCF   01,F
0700:  DECF   00,F
0702:  BRA    06F6
0704:  BCF    01.7
0706:  RETURN 0
0708:  MOVLW  80
070A:  BTFSC  FD8.1
070C:  XORWF  x62,F
070E:  CLRF   x67
0710:  CLRF   x68
0712:  MOVFF  5E,66
0716:  MOVF   x62,W
0718:  XORWF  x66,F
071A:  MOVF   5D,W
071C:  BTFSC  FD8.2
071E:  BRA    08D8
0720:  MOVWF  x65
0722:  MOVWF  00
0724:  MOVF   x61,W
0726:  BTFSC  FD8.2
0728:  BRA    08EA
072A:  SUBWF  x65,F
072C:  BTFSC  FD8.2
072E:  BRA    0832
0730:  BNC   07AC
0732:  MOVFF  62,6B
0736:  BSF    x6B.7
0738:  MOVFF  63,6A
073C:  MOVFF  64,69
0740:  CLRF   x68
0742:  BCF    FD8.0
0744:  RRCF   x6B,F
0746:  RRCF   x6A,F
0748:  RRCF   x69,F
074A:  RRCF   x68,F
074C:  DECFSZ x65,F
074E:  BRA    0740
0750:  BTFSS  x66.7
0752:  BRA    075A
0754:  BSF    x67.0
0756:  BRA    0912
0758:  BCF    x67.0
075A:  BCF    x65.0
075C:  BSF    x67.4
075E:  CLRF   FEA
0760:  MOVLW  60
0762:  MOVWF  FE9
0764:  BRA    0938
0766:  BCF    x67.4
0768:  BTFSC  x66.7
076A:  BRA    0780
076C:  BTFSS  x65.0
076E:  BRA    0796
0770:  RRCF   x6B,F
0772:  RRCF   x6A,F
0774:  RRCF   x69,F
0776:  RRCF   x68,F
0778:  INCF   00,F
077A:  BTFSC  FD8.2
077C:  BRA    0908
077E:  BRA    0796
0780:  BTFSC  x6B.7
0782:  BRA    079C
0784:  BCF    FD8.0
0786:  RLCF   x68,F
0788:  RLCF   x69,F
078A:  RLCF   x6A,F
078C:  RLCF   x6B,F
078E:  DECF   00,F
0790:  BTFSC  FD8.2
0792:  BRA    0908
0794:  BRA    0780
0796:  BSF    x67.6
0798:  BRA    0870
079A:  BCF    x67.6
079C:  MOVFF  5E,66
07A0:  BTFSS  5E.7
07A2:  BRA    07A8
07A4:  BSF    x6B.7
07A6:  BRA    08FA
07A8:  BCF    x6B.7
07AA:  BRA    08FA
07AC:  MOVFF  61,65
07B0:  MOVFF  61,00
07B4:  MOVF   5D,W
07B6:  SUBWF  x65,F
07B8:  MOVFF  5E,6B
07BC:  BSF    x6B.7
07BE:  MOVFF  5F,6A
07C2:  MOVFF  60,69
07C6:  CLRF   x68
07C8:  BCF    FD8.0
07CA:  RRCF   x6B,F
07CC:  RRCF   x6A,F
07CE:  RRCF   x69,F
07D0:  RRCF   x68,F
07D2:  DECFSZ x65,F
07D4:  BRA    07C6
07D6:  BTFSS  x66.7
07D8:  BRA    07E0
07DA:  BSF    x67.1
07DC:  BRA    0912
07DE:  BCF    x67.1
07E0:  BCF    x65.0
07E2:  BSF    x67.5
07E4:  CLRF   FEA
07E6:  MOVLW  64
07E8:  MOVWF  FE9
07EA:  BRA    0938
07EC:  BCF    x67.5
07EE:  BTFSC  x66.7
07F0:  BRA    0806
07F2:  BTFSS  x65.0
07F4:  BRA    081C
07F6:  RRCF   x6B,F
07F8:  RRCF   x6A,F
07FA:  RRCF   x69,F
07FC:  RRCF   x68,F
07FE:  INCF   00,F
0800:  BTFSC  FD8.2
0802:  BRA    0908
0804:  BRA    081C
0806:  BTFSC  x6B.7
0808:  BRA    0822
080A:  BCF    FD8.0
080C:  RLCF   x68,F
080E:  RLCF   x69,F
0810:  RLCF   x6A,F
0812:  RLCF   x6B,F
0814:  DECF   00,F
0816:  BTFSC  FD8.2
0818:  BRA    0908
081A:  BRA    0806
081C:  BSF    x67.7
081E:  BRA    0870
0820:  BCF    x67.7
0822:  MOVFF  62,66
0826:  BTFSS  x62.7
0828:  BRA    082E
082A:  BSF    x6B.7
082C:  BRA    08FA
082E:  BCF    x6B.7
0830:  BRA    08FA
0832:  MOVFF  62,6B
0836:  BSF    x6B.7
0838:  MOVFF  63,6A
083C:  MOVFF  64,69
0840:  BTFSS  x66.7
0842:  BRA    084C
0844:  BCF    x6B.7
0846:  BSF    x67.2
0848:  BRA    0912
084A:  BCF    x67.2
084C:  CLRF   x68
084E:  BCF    x65.0
0850:  CLRF   FEA
0852:  MOVLW  60
0854:  MOVWF  FE9
0856:  BRA    0938
0858:  BTFSC  x66.7
085A:  BRA    0894
085C:  MOVFF  5E,66
0860:  BTFSS  x65.0
0862:  BRA    0870
0864:  RRCF   x6B,F
0866:  RRCF   x6A,F
0868:  RRCF   x69,F
086A:  RRCF   x68,F
086C:  INCF   00,F
086E:  BZ    0908
0870:  BTFSS  x68.7
0872:  BRA    088A
0874:  INCF   x69,F
0876:  BNZ   088A
0878:  INCF   x6A,F
087A:  BNZ   088A
087C:  INCF   x6B,F
087E:  BNZ   088A
0880:  RRCF   x6B,F
0882:  RRCF   x6A,F
0884:  RRCF   x69,F
0886:  INCF   00,F
0888:  BZ    0908
088A:  BTFSC  x67.6
088C:  BRA    079A
088E:  BTFSC  x67.7
0890:  BRA    0820
0892:  BRA    08CC
0894:  MOVLW  80
0896:  XORWF  x6B,F
0898:  BTFSS  x6B.7
089A:  BRA    08A4
089C:  BRA    0912
089E:  MOVFF  62,66
08A2:  BRA    08B8
08A4:  MOVFF  5E,66
08A8:  MOVF   x6B,F
08AA:  BNZ   08B8
08AC:  MOVF   x6A,F
08AE:  BNZ   08B8
08B0:  MOVF   x69,F
08B2:  BNZ   08B8
08B4:  CLRF   00
08B6:  BRA    08FA
08B8:  BTFSC  x6B.7
08BA:  BRA    08CC
08BC:  BCF    FD8.0
08BE:  RLCF   x68,F
08C0:  RLCF   x69,F
08C2:  RLCF   x6A,F
08C4:  RLCF   x6B,F
08C6:  DECFSZ 00,F
08C8:  BRA    08B8
08CA:  BRA    0908
08CC:  BTFSS  x66.7
08CE:  BRA    08D4
08D0:  BSF    x6B.7
08D2:  BRA    08FA
08D4:  BCF    x6B.7
08D6:  BRA    08FA
08D8:  MOVFF  61,00
08DC:  MOVFF  62,6B
08E0:  MOVFF  63,6A
08E4:  MOVFF  64,69
08E8:  BRA    08FA
08EA:  MOVFF  5D,00
08EE:  MOVFF  5E,6B
08F2:  MOVFF  5F,6A
08F6:  MOVFF  60,69
08FA:  MOVFF  6B,01
08FE:  MOVFF  6A,02
0902:  MOVFF  69,03
0906:  BRA    0970
0908:  CLRF   00
090A:  CLRF   01
090C:  CLRF   02
090E:  CLRF   03
0910:  BRA    0970
0912:  CLRF   x68
0914:  COMF   x69,F
0916:  COMF   x6A,F
0918:  COMF   x6B,F
091A:  COMF   x68,F
091C:  INCF   x68,F
091E:  BNZ   092A
0920:  INCF   x69,F
0922:  BNZ   092A
0924:  INCF   x6A,F
0926:  BNZ   092A
0928:  INCF   x6B,F
092A:  BTFSC  x67.0
092C:  BRA    0758
092E:  BTFSC  x67.1
0930:  BRA    07DE
0932:  BTFSC  x67.2
0934:  BRA    084A
0936:  BRA    089E
0938:  MOVF   FEF,W
093A:  ADDWF  x69,F
093C:  BNC   0948
093E:  INCF   x6A,F
0940:  BNZ   0948
0942:  INCF   x6B,F
0944:  BTFSC  FD8.2
0946:  BSF    x65.0
0948:  MOVF   FED,F
094A:  MOVF   FEF,W
094C:  ADDWF  x6A,F
094E:  BNC   0956
0950:  INCF   x6B,F
0952:  BTFSC  FD8.2
0954:  BSF    x65.0
0956:  MOVF   FED,F
0958:  MOVF   FEF,W
095A:  BTFSC  FEF.7
095C:  BRA    0960
095E:  XORLW  80
0960:  ADDWF  x6B,F
0962:  BTFSC  FD8.0
0964:  BSF    x65.0
0966:  BTFSC  x67.4
0968:  BRA    0766
096A:  BTFSC  x67.5
096C:  BRA    07EC
096E:  BRA    0858
0970:  GOTO   0C52 (RETURN)
0974:  MOVF   5D,W
0976:  BTFSC  FD8.2
0978:  BRA    0AC4
097A:  MOVWF  x69
097C:  MOVF   x61,W
097E:  BTFSC  FD8.2
0980:  BRA    0AC4
0982:  SUBWF  x69,F
0984:  BNC   0990
0986:  MOVLW  7F
0988:  ADDWF  x69,F
098A:  BTFSC  FD8.0
098C:  BRA    0AC4
098E:  BRA    099C
0990:  MOVLW  81
0992:  SUBWF  x69,F
0994:  BTFSS  FD8.0
0996:  BRA    0AC4
0998:  BTFSC  FD8.2
099A:  BRA    0AC4
099C:  MOVFF  69,00
09A0:  CLRF   01
09A2:  CLRF   02
09A4:  CLRF   03
09A6:  CLRF   x68
09A8:  MOVFF  5E,67
09AC:  BSF    x67.7
09AE:  MOVFF  5F,66
09B2:  MOVFF  60,65
09B6:  MOVLW  19
09B8:  MOVWF  x69
09BA:  MOVF   x64,W
09BC:  SUBWF  x65,F
09BE:  BC    09DA
09C0:  MOVLW  01
09C2:  SUBWF  x66,F
09C4:  BC    09DA
09C6:  SUBWF  x67,F
09C8:  BC    09DA
09CA:  SUBWF  x68,F
09CC:  BC    09DA
09CE:  INCF   x68,F
09D0:  INCF   x67,F
09D2:  INCF   x66,F
09D4:  MOVF   x64,W
09D6:  ADDWF  x65,F
09D8:  BRA    0A2A
09DA:  MOVF   x63,W
09DC:  SUBWF  x66,F
09DE:  BC    0A04
09E0:  MOVLW  01
09E2:  SUBWF  x67,F
09E4:  BC    0A04
09E6:  SUBWF  x68,F
09E8:  BC    0A04
09EA:  INCF   x68,F
09EC:  INCF   x67,F
09EE:  MOVF   x63,W
09F0:  ADDWF  x66,F
09F2:  MOVF   x64,W
09F4:  ADDWF  x65,F
09F6:  BNC   0A2A
09F8:  INCF   x66,F
09FA:  BNZ   0A2A
09FC:  INCF   x67,F
09FE:  BNZ   0A2A
0A00:  INCF   x68,F
0A02:  BRA    0A2A
0A04:  MOVF   x62,W
0A06:  IORLW  80
0A08:  SUBWF  x67,F
0A0A:  BC    0A28
0A0C:  MOVLW  01
0A0E:  SUBWF  x68,F
0A10:  BC    0A28
0A12:  INCF   x68,F
0A14:  MOVF   x62,W
0A16:  IORLW  80
0A18:  ADDWF  x67,F
0A1A:  MOVF   x63,W
0A1C:  ADDWF  x66,F
0A1E:  BNC   09F2
0A20:  INCF   x67,F
0A22:  BNZ   09F2
0A24:  INCF   x68,F
0A26:  BRA    09F2
0A28:  BSF    03.0
0A2A:  DECFSZ x69,F
0A2C:  BRA    0A30
0A2E:  BRA    0A46
0A30:  BCF    FD8.0
0A32:  RLCF   x65,F
0A34:  RLCF   x66,F
0A36:  RLCF   x67,F
0A38:  RLCF   x68,F
0A3A:  BCF    FD8.0
0A3C:  RLCF   03,F
0A3E:  RLCF   02,F
0A40:  RLCF   01,F
0A42:  RLCF   x6A,F
0A44:  BRA    09BA
0A46:  BTFSS  x6A.0
0A48:  BRA    0A56
0A4A:  BCF    FD8.0
0A4C:  RRCF   01,F
0A4E:  RRCF   02,F
0A50:  RRCF   03,F
0A52:  RRCF   x6A,F
0A54:  BRA    0A5A
0A56:  DECF   00,F
0A58:  BZ    0AC4
0A5A:  BTFSC  x6A.7
0A5C:  BRA    0A9A
0A5E:  BCF    FD8.0
0A60:  RLCF   x65,F
0A62:  RLCF   x66,F
0A64:  RLCF   x67,F
0A66:  RLCF   x68,F
0A68:  MOVF   x64,W
0A6A:  SUBWF  x65,F
0A6C:  BC    0A7C
0A6E:  MOVLW  01
0A70:  SUBWF  x66,F
0A72:  BC    0A7C
0A74:  SUBWF  x67,F
0A76:  BC    0A7C
0A78:  SUBWF  x68,F
0A7A:  BNC   0AB0
0A7C:  MOVF   x63,W
0A7E:  SUBWF  x66,F
0A80:  BC    0A8C
0A82:  MOVLW  01
0A84:  SUBWF  x67,F
0A86:  BC    0A8C
0A88:  SUBWF  x68,F
0A8A:  BNC   0AB0
0A8C:  MOVF   x62,W
0A8E:  IORLW  80
0A90:  SUBWF  x67,F
0A92:  BC    0A9A
0A94:  MOVLW  01
0A96:  SUBWF  x68,F
0A98:  BNC   0AB0
0A9A:  INCF   03,F
0A9C:  BNZ   0AB0
0A9E:  INCF   02,F
0AA0:  BNZ   0AB0
0AA2:  INCF   01,F
0AA4:  BNZ   0AB0
0AA6:  INCF   00,F
0AA8:  BZ    0AC4
0AAA:  RRCF   01,F
0AAC:  RRCF   02,F
0AAE:  RRCF   03,F
0AB0:  MOVFF  5E,69
0AB4:  MOVF   x62,W
0AB6:  XORWF  x69,F
0AB8:  BTFSS  x69.7
0ABA:  BRA    0AC0
0ABC:  BSF    01.7
0ABE:  BRA    0ACC
0AC0:  BCF    01.7
0AC2:  BRA    0ACC
0AC4:  CLRF   00
0AC6:  CLRF   01
0AC8:  CLRF   02
0ACA:  CLRF   03
0ACC:  RETURN 0
0ACE:  MOVF   5D,W
0AD0:  BTFSC  FD8.2
0AD2:  BRA    0BB6
0AD4:  MOVWF  00
0AD6:  MOVF   x61,W
0AD8:  BTFSC  FD8.2
0ADA:  BRA    0BB6
0ADC:  ADDWF  00,F
0ADE:  BNC   0AE8
0AE0:  MOVLW  81
0AE2:  ADDWF  00,F
0AE4:  BC    0BB6
0AE6:  BRA    0AF0
0AE8:  MOVLW  7F
0AEA:  SUBWF  00,F
0AEC:  BNC   0BB6
0AEE:  BZ    0BB6
0AF0:  MOVFF  5E,65
0AF4:  MOVF   x62,W
0AF6:  XORWF  x65,F
0AF8:  BSF    5E.7
0AFA:  BSF    x62.7
0AFC:  MOVF   x60,W
0AFE:  MULWF  x64
0B00:  MOVFF  FF4,67
0B04:  MOVF   5F,W
0B06:  MULWF  x63
0B08:  MOVFF  FF4,03
0B0C:  MOVFF  FF3,66
0B10:  MULWF  x64
0B12:  MOVF   FF3,W
0B14:  ADDWF  x67,F
0B16:  MOVF   FF4,W
0B18:  ADDWFC x66,F
0B1A:  MOVLW  00
0B1C:  ADDWFC 03,F
0B1E:  MOVF   x60,W
0B20:  MULWF  x63
0B22:  MOVF   FF3,W
0B24:  ADDWF  x67,F
0B26:  MOVF   FF4,W
0B28:  ADDWFC x66,F
0B2A:  MOVLW  00
0B2C:  CLRF   02
0B2E:  ADDWFC 03,F
0B30:  ADDWFC 02,F
0B32:  MOVF   5E,W
0B34:  MULWF  x64
0B36:  MOVF   FF3,W
0B38:  ADDWF  x66,F
0B3A:  MOVF   FF4,W
0B3C:  ADDWFC 03,F
0B3E:  MOVLW  00
0B40:  ADDWFC 02,F
0B42:  MOVF   5E,W
0B44:  MULWF  x63
0B46:  MOVF   FF3,W
0B48:  ADDWF  03,F
0B4A:  MOVF   FF4,W
0B4C:  ADDWFC 02,F
0B4E:  MOVLW  00
0B50:  CLRF   01
0B52:  ADDWFC 01,F
0B54:  MOVF   x60,W
0B56:  MULWF  x62
0B58:  MOVF   FF3,W
0B5A:  ADDWF  x66,F
0B5C:  MOVF   FF4,W
0B5E:  ADDWFC 03,F
0B60:  MOVLW  00
0B62:  ADDWFC 02,F
0B64:  ADDWFC 01,F
0B66:  MOVF   5F,W
0B68:  MULWF  x62
0B6A:  MOVF   FF3,W
0B6C:  ADDWF  03,F
0B6E:  MOVF   FF4,W
0B70:  ADDWFC 02,F
0B72:  MOVLW  00
0B74:  ADDWFC 01,F
0B76:  MOVF   5E,W
0B78:  MULWF  x62
0B7A:  MOVF   FF3,W
0B7C:  ADDWF  02,F
0B7E:  MOVF   FF4,W
0B80:  ADDWFC 01,F
0B82:  INCF   00,F
0B84:  BTFSC  01.7
0B86:  BRA    0B92
0B88:  RLCF   x66,F
0B8A:  RLCF   03,F
0B8C:  RLCF   02,F
0B8E:  RLCF   01,F
0B90:  DECF   00,F
0B92:  MOVLW  00
0B94:  BTFSS  x66.7
0B96:  BRA    0BAC
0B98:  INCF   03,F
0B9A:  ADDWFC 02,F
0B9C:  ADDWFC 01,F
0B9E:  MOVF   01,W
0BA0:  BNZ   0BAC
0BA2:  MOVF   02,W
0BA4:  BNZ   0BAC
0BA6:  MOVF   03,W
0BA8:  BNZ   0BAC
0BAA:  INCF   00,F
0BAC:  BTFSC  x65.7
0BAE:  BSF    01.7
0BB0:  BTFSS  x65.7
0BB2:  BCF    01.7
0BB4:  BRA    0BBE
0BB6:  CLRF   00
0BB8:  CLRF   01
0BBA:  CLRF   02
0BBC:  CLRF   03
0BBE:  GOTO   0CF0 (RETURN)
0BC2:  MOVLW  8E
0BC4:  MOVWF  00
0BC6:  MOVF   x61,W
0BC8:  SUBWF  00,F
0BCA:  MOVFF  62,02
0BCE:  MOVFF  63,01
0BD2:  BSF    02.7
0BD4:  MOVF   00,F
0BD6:  BZ    0BEA
0BD8:  BCF    FD8.0
0BDA:  MOVF   02,F
0BDC:  BNZ   0BE2
0BDE:  MOVF   01,F
0BE0:  BZ    0BEA
0BE2:  RRCF   02,F
0BE4:  RRCF   01,F
0BE6:  DECFSZ 00,F
0BE8:  BRA    0BD8
0BEA:  BTFSS  x62.7
0BEC:  BRA    0BF8
0BEE:  COMF   01,F
0BF0:  COMF   02,F
0BF2:  INCF   01,F
0BF4:  BTFSC  FD8.2
0BF6:  INCF   02,F
0BF8:  RETURN 0
*
0D0E:  CLRF   01
0D10:  CLRF   02
0D12:  CLRF   00
0D14:  CLRF   03
0D16:  MOVF   x66,W
0D18:  BNZ   0D1E
0D1A:  MOVF   x65,W
0D1C:  BZ    0D4E
0D1E:  MOVLW  10
0D20:  MOVWF  x67
0D22:  BCF    FD8.0
0D24:  RLCF   x63,F
0D26:  RLCF   x64,F
0D28:  RLCF   00,F
0D2A:  RLCF   03,F
0D2C:  MOVF   x66,W
0D2E:  SUBWF  03,W
0D30:  BNZ   0D36
0D32:  MOVF   x65,W
0D34:  SUBWF  00,W
0D36:  BNC   0D46
0D38:  MOVF   x65,W
0D3A:  SUBWF  00,F
0D3C:  BTFSS  FD8.0
0D3E:  DECF   03,F
0D40:  MOVF   x66,W
0D42:  SUBWF  03,F
0D44:  BSF    FD8.0
0D46:  RLCF   01,F
0D48:  RLCF   02,F
0D4A:  DECFSZ x67,F
0D4C:  BRA    0D22
0D4E:  RETURN 0
*
0DF2:  CLRF   00
0DF4:  CLRF   01
0DF6:  MOVF   x61,W
0DF8:  BCF    FD8.0
0DFA:  BTFSC  x62.0
0DFC:  ADDWF  00,F
0DFE:  RRCF   00,F
0E00:  RRCF   01,F
0E02:  BTFSC  x62.1
0E04:  ADDWF  00,F
0E06:  RRCF   00,F
0E08:  RRCF   01,F
0E0A:  BTFSC  x62.2
0E0C:  ADDWF  00,F
0E0E:  RRCF   00,F
0E10:  RRCF   01,F
0E12:  BTFSC  x62.3
0E14:  ADDWF  00,F
0E16:  RRCF   00,F
0E18:  RRCF   01,F
0E1A:  BTFSC  x62.4
0E1C:  ADDWF  00,F
0E1E:  RRCF   00,F
0E20:  RRCF   01,F
0E22:  BTFSC  x62.5
0E24:  ADDWF  00,F
0E26:  RRCF   00,F
0E28:  RRCF   01,F
0E2A:  BTFSC  x62.6
0E2C:  ADDWF  00,F
0E2E:  RRCF   00,F
0E30:  RRCF   01,F
0E32:  BTFSC  x62.7
0E34:  ADDWF  00,F
0E36:  RRCF   00,F
0E38:  RRCF   01,F
0E3A:  GOTO   0F60 (RETURN)
....................  
.................... #list 
....................  
.................... #device     adc=10 
.................... #fuses      nowdt,put,hs,noprotect,nolvp,cpudiv1 
.................... #use        delay(clock=20000000) 
*
02C6:  CLRF   FEA
02C8:  MOVLW  61
02CA:  MOVWF  FE9
02CC:  MOVF   FEF,W
02CE:  BZ    02EA
02D0:  MOVLW  06
02D2:  MOVWF  01
02D4:  CLRF   00
02D6:  DECFSZ 00,F
02D8:  BRA    02D6
02DA:  DECFSZ 01,F
02DC:  BRA    02D4
02DE:  MOVLW  7B
02E0:  MOVWF  00
02E2:  DECFSZ 00,F
02E4:  BRA    02E2
02E6:  DECFSZ FEF,F
02E8:  BRA    02D0
02EA:  RETURN 0
*
0334:  MOVLW  03
0336:  SUBWF  5F,F
0338:  BNC   034C
033A:  CLRF   FEA
033C:  MOVLW  5F
033E:  MOVWF  FE9
0340:  MOVF   FEF,W
0342:  BZ    034C
0344:  BRA    0348
0346:  BRA    0348
0348:  DECFSZ FEF,F
034A:  BRA    0346
034C:  RETURN 0
.................... #use        i2c(master,slow,sda=pin_b0,scl=pin_b1) 
*
047E:  MOVLW  08
0480:  MOVWF  01
0482:  MOVLW  05
0484:  MOVWF  00
0486:  DECFSZ 00,F
0488:  BRA    0486
048A:  BCF    F8A.1
048C:  BCF    F93.1
048E:  MOVLW  06
0490:  MOVWF  00
0492:  DECFSZ 00,F
0494:  BRA    0492
0496:  RLCF   5D,F
0498:  BCF    F8A.0
049A:  BTFSC  FD8.0
049C:  BSF    F93.0
049E:  BTFSS  FD8.0
04A0:  BCF    F93.0
04A2:  BSF    F93.1
04A4:  BTFSS  F81.1
04A6:  BRA    04A4
04A8:  DECFSZ 01,F
04AA:  BRA    0482
04AC:  MOVLW  05
04AE:  MOVWF  00
04B0:  DECFSZ 00,F
04B2:  BRA    04B0
04B4:  BCF    F8A.1
04B6:  BCF    F93.1
04B8:  NOP   
04BA:  BSF    F93.0
04BC:  MOVLW  06
04BE:  MOVWF  00
04C0:  DECFSZ 00,F
04C2:  BRA    04C0
04C4:  MOVLW  06
04C6:  MOVWF  00
04C8:  DECFSZ 00,F
04CA:  BRA    04C8
04CC:  BSF    F93.1
04CE:  BTFSS  F81.1
04D0:  BRA    04CE
04D2:  CLRF   01
04D4:  MOVLW  06
04D6:  MOVWF  00
04D8:  DECFSZ 00,F
04DA:  BRA    04D8
04DC:  BTFSC  F81.0
04DE:  BSF    01.0
04E0:  BCF    F8A.1
04E2:  BCF    F93.1
04E4:  BCF    F8A.0
04E6:  BCF    F93.0
04E8:  RETURN 0
04EA:  MOVLW  08
04EC:  MOVWF  5E
04EE:  MOVFF  00,5F
04F2:  BSF    F93.0
04F4:  MOVLW  06
04F6:  MOVWF  00
04F8:  DECFSZ 00,F
04FA:  BRA    04F8
04FC:  BSF    F93.1
04FE:  BTFSS  F81.1
0500:  BRA    04FE
0502:  BTFSC  F81.0
0504:  BSF    FD8.0
0506:  BTFSS  F81.0
0508:  BCF    FD8.0
050A:  RLCF   01,F
050C:  MOVLW  05
050E:  MOVWF  00
0510:  DECFSZ 00,F
0512:  BRA    0510
0514:  BCF    F93.1
0516:  BCF    F8A.1
0518:  DECFSZ 5E,F
051A:  BRA    04F2
051C:  BSF    F93.0
051E:  MOVLW  06
0520:  MOVWF  00
0522:  DECFSZ 00,F
0524:  BRA    0522
0526:  BCF    F8A.0
0528:  MOVF   5F,W
052A:  BTFSS  FD8.2
052C:  BCF    F93.0
052E:  NOP   
0530:  BSF    F93.1
0532:  BTFSS  F81.1
0534:  BRA    0532
0536:  MOVLW  05
0538:  MOVWF  00
053A:  DECFSZ 00,F
053C:  BRA    053A
053E:  BCF    F8A.1
0540:  BCF    F93.1
0542:  MOVLW  06
0544:  MOVWF  00
0546:  DECFSZ 00,F
0548:  BRA    0546
054A:  BCF    F8A.0
054C:  BCF    F93.0
054E:  RETURN 0
....................  
.................... //#use        rs232(baud=9600, xmit=pin_c6,rcv=pin_c7) 
.................... //nut nhan: 
.................... #define  bt0     pin_b5 
.................... #define  bt1     pin_b4 
.................... #define  bt2     pin_b3 
.................... #define  bt3     pin_b2 
....................  
.................... #define  on      bt0       //dk led don, motor 
.................... #define  off     bt1 
.................... #define  inv     bt2 
....................  
.................... #define  up      bt0    //dk led don 
.................... #define  dw      bt1 
.................... #define  clr     bt2 
.................... #define  mod     bt3 
....................  
.................... #define  stop    bt3 
....................  
.................... #define  on1     bt0      
.................... #define  off1    bt1 
.................... #define  on2     bt2        
.................... #define  off2    bt3 
....................  
....................  
.................... #define     trigger      pin_e2 
.................... #define     echo         pin_e1 
.................... //   ic74138_a    pin_b6   //output giai ma 2 sang 4 tich cuc muc 0 
.................... //   ic74138_b    pin_b7   //output giai ma 2 sang 4 tich cuc muc 0 
....................  
.................... //          encoder  pin_c0   //rc0/t13cki 
....................  
.................... //          cb_kc    pin_a2   //ra2/an2 
.................... //          pir      pin_a3   //ra3/an3 
.................... //          cbxung   pin_a4   //ra4/t0cki 
.................... //          ledthu   pin_a4   //ra4/t0cki//sw802 
....................  
.................... //          cb_kcsa_trigger  pin_e2   //re2/sdo  dung chung 
.................... //          cb_kcsa_rcho     pin_e1   //re1 
....................  
.................... //          cb_tcs3200_out    pin_e1   //re1 //cam bien mau tcs3200 
.................... //          cb_tcs3200_s0     b12      //lay tu mbi5026 
.................... //          cb_tcs3200_s1     b13      //lay tu mbi5026 
.................... //          cb_tcs3200_s2     b14      //lay tu mbi5026 
.................... //          cb_tcs3200_s3     b15      //lay tu mbi5026 
....................  
.................... //          cb_power  sw803 
.................... //          cb_gas      ain3_pcf8591t   //re1 
.................... //          cb_quang    ain2_pcf8591t    
.................... //          cb_lm35b    ain1_pcf8591t   //ra1/an1 
.................... //          cb_lm35a    ain0_pcf8591t   //re1/an0 
....................  
.................... //xxxxxxxxxxxxxxxxxxxxxxxxxxxxxxxxxxxxxxxxxxxxxxxxx 
.................... #define      enable_573a      pin_d1         //cs0 cua a 
.................... #define      enable_573b      pin_d0         //cs1 cua b 
.................... //xxxxxxxxxxxxxxxxxxxxxxxxxxxxxxxxxxxxxxxxxxxxxxxxx 
.................... #define      ssdo             pin_e2         //chung tat ca 
.................... #define      ssck             pin_e0         //chung tat ca 
.................... //xxxxxxxxxxxxxxxxxxxxxxxxxxxxxxxxxxxxxxxxxxxxxxxxx 
.................... #define      rck_4led7doan    pin_d7         //a - 4 byte 
.................... #define      g_4led7doan      pin_d6         //a - 4 byte 
.................... //xxxxxxxxxxxxxxxxxxxxxxxxxxxxxxxxxxxxxxxxxxxx     
.................... #define      rck_matranled    pin_d7         //b - 3 byte dao 
.................... #define      g_matranled      pin_d6         //b - 3 byte dao 
.................... //xxxxxxxxxxxxxxxxxxxxxxxxxxxxxxxxxxxxxxxxxxxxxxxxx 
.................... #define      rck_32led        pin_d5         //a - 4 byte 
.................... #define      g_32led          pin_d4         //a - 4 byte 
.................... //xxxxxxxxxxxxxxxxxxxxxxxxxxxxxxxxxxxxxxxxxxxx  
.................... #define      rck_8ledquet     pin_d5         //b - 2 byte dao 
.................... #define      g_8ledquet       pin_d4         //b - 2 byte dao 
.................... //xxxxxxxxxxxxxxxxxxxxxxxxxxxxxxxxxxxxxxxxxxxxxxxxx 
.................... #define      rck_lcd20x4      pin_d3         //a - 2 byte dao 
.................... #define      g_lcd20x4         pin_d2         //a - 2 byte dao 
.................... //xxxxxxxxxxxxxxxxxxxxxxxxxxxxxxxxxxxxxxxxxxxx  
.................... #define      rck_buzerelay    pin_d3     //b - 1 byte  
.................... #define      g_buzerelay      pin_d2         //b - 1 byte  
....................  
.................... void xuat_lcd20x4(unsigned int8 lcd_signal,lcd_ins_hthi); 
....................  
.................... void xuat_buzzer_relay(); 
.................... //xxxxxxxxxxxxxxxxxxxxxxxxxxxxxxxxxxxxxxxxxxxx    
.................... #define     chot_2_ic_74573_a_b  output_d(0xfc) 
....................  
.................... unsigned int8 tin_hieu_dk_74573_a; 
.................... #bit g_4a         = tin_hieu_dk_74573_a.6 
.................... #bit g_32a        = tin_hieu_dk_74573_a.4 
.................... #bit g_lcda       = tin_hieu_dk_74573_a.2 
.................... //xxxxxxxxxxxxxxxxxxxxxxxxxxxxxxxxxxxxxxxxxxxx          
.................... #define     mo_32_led_don        g_32a=0; //output_low(g_32led)  
.................... #define     tat_32_led_don       g_32a=1; //output_high(g_32led)  
.................... //xxxxxxxxxxxxxxxxxxxxxxxxxxxxxxxxxxxxxxxxxxxx          
.................... #define     mo_4_led_7doan       g_4a=0;  //output_low(g_4led7doan) 
.................... #define     tat_4_led_7doan      g_4a=1;  //output_high(g_4led7doan) 
.................... //xxxxxxxxxxxxxxxxxxxxxxxxxxxxxxxxxxxxxxxxxxxx  
.................... #define     mo_glcd_lcd           g_lcda=0;   //output_low(g_lcd20x4) 
.................... #define     tat_glcd_lcd          g_lcda=1;   // output_low(g_lcd20x4) 
....................  
.................... unsigned int8 tin_hieu_dk_74573_b;   
.................... #bit g_mtb        = tin_hieu_dk_74573_b.6 
.................... #bit g_8b         = tin_hieu_dk_74573_b.4 
.................... #bit g_rbdcb      = tin_hieu_dk_74573_b.2 
.................... //xxxxxxxxxxxxxxxxxxxxxxxxxxxxxxxxxxxxxxxxxxxx  
.................... #define     mo_led_matran        g_mtb=0; //output_low(g_matranled) 
.................... #define     tat_led_matran       g_mtb=1; //output_low(g_matranled) 
.................... //xxxxxxxxxxxxxxxxxxxxxxxxxxxxxxxxxxxxxxxxxxxx        
.................... #define     mo_8_led_quet        g_8b=0;  //output_low(g_8ledquet) 
.................... #define     tat_8_led_quet       g_8b=1;  //output_low(g_8ledquet) 
.................... //xxxxxxxxxxxxxxxxxxxxxxxxxxxxxxxxxxxxxxxxxxxx          
.................... #define     mo_relay_buzzer_dc   g_rbdcb=0;  //output_low(g_buzerelay) 
.................... #define     tat_relay_buzzer_dc  g_rbdcb=1;  //output_low(g_buzerelay) 
....................  
.................... //xxxxxxxxxxxxxxxxxxxxxxxxxxxxxxxxxxxxxxxxxxxx 
.................... //chuong trinh kiem tra phim bt1 
.................... //xxxxxxxxxxxxxxxxxxxxxxxxxxxxxxxxxxxxxxxxxxxx 
.................... unsigned int8 dl_btn=0; 
.................... int1 phim_bt0(unsigned int16 dl) 
.................... {   
....................     if (!input(bt0)) 
....................     {   
....................       dl_btn++; 
....................        
....................       if (dl_btn>= dl) 
....................          { 
....................             dl_btn =0; 
....................             return(1); 
....................          } 
....................       else return(0); 
....................     } 
....................     else    return(0); 
.................... }  
.................... //xxxxxxxxxxxxxxxxxxxxxxxxxxxxxxxxxxxxxxxxxxxx 
.................... //chuong trinh kiem tra phim bt1 
.................... //xxxxxxxxxxxxxxxxxxxxxxxxxxxxxxxxxxxxxxxxxxxx 
.................... int1 phim_bt1(unsigned int16 dl ) 
.................... {   
....................     if (!input(bt1)) 
....................     {   
....................       dl_btn++; 
....................        
....................       if (dl_btn>= dl) 
....................          { 
....................             dl_btn =0; 
....................             return(1); 
....................          } 
....................       else return(0); 
....................     } 
....................     else    return(0); 
.................... }  
.................... //xxxxxxxxxxxxxxxxxxxxxxxxxxxxxxxxxxxxxxxxxxxx 
.................... //chuong trinh kiem tra phim bt2       
.................... //xxxxxxxxxxxxxxxxxxxxxxxxxxxxxxxxxxxxxxxxxxxx                                     
.................... int1 phim_bt2(unsigned int16 dl ) 
.................... {                                         
....................     if (!input(bt2)) 
....................     {   
....................       dl_btn++; 
....................        
....................       if (dl_btn>= dl) 
....................          { 
....................             dl_btn =0; 
....................             return(1); 
....................          } 
....................       else return(0); 
....................     } 
....................     else    return(0); 
....................                                           
.................... }       
....................  
.................... //xxxxxxxxxxxxxxxxxxxxxxxxxxxxxxxxxxxxxxxxxxxx 
.................... //chuong trinh kiem tra phim bt3 
.................... //xxxxxxxxxxxxxxxxxxxxxxxxxxxxxxxxxxxxxxxxxxxx 
.................... int1 phim_bt3(unsigned int16 dl,  unsigned int8 solan  ) 
.................... {   
....................     if (!input(bt3)) 
....................     {   
....................       dl_btn++; 
....................       if(dl_btn==1) return(1); 
....................       else 
....................       { 
....................          if (dl_btn>= dl) 
....................          dl_btn =solan; 
....................       } 
....................     } 
....................     else    
....................     { 
....................       //dl_btn =0; 
....................       return(0); 
....................     } 
.................... }  
.................... //xxxxxxxxxxxxxxxxxxxxxxxxxxxxxxxxxxxxxxxxxxxx 
.................... //khai bao du lieu 16 bit cho module relay, triac, buzzer, dong co 
.................... //xxxxxxxxxxxxxxxxxxxxxxxxxxxxxxxxxxxxxxxxxxxx 
.................... unsigned int16 rbdc; 
.................... #bit step_motor_enable  = rbdc.0    //1=ena,0=dis 
.................... #bit step_motor_in1     = rbdc.1     
.................... #bit step_motor_in2     = rbdc.2 
.................... #bit step_motor_in3     = rbdc.3 
.................... #bit step_motor_in4     = rbdc.4 
.................... #bit dc_enable          = rbdc.5    //1=ena,0=dis 
.................... #bit pwrkey             = rbdc.6    //khoi tao sim900 
....................  
.................... #bit buzzer             = rbdc.8    //1=on,0=off 
.................... #bit triac_1            = rbdc.9    //1=on,0=off 
.................... #bit triac_2            = rbdc.10   //1=on,0=off 
.................... #bit relay_1            = rbdc.11   //0=on,1=off 
.................... #bit relay_2            = rbdc.12   //0=on,1=off 
....................  
.................... //ham 103 
.................... //xxxxxxxxxxxxxxxxxxxxxxxxxxxxxxxxxxxxxxxxxxxx 
.................... //chuong trinh con khoi tao ic chot 
.................... //xxxxxxxxxxxxxxxxxxxxxxxxxxxxxxxxxxxxxxxxxxxx          
.................... #define     cho_ic_74573_a_goi_du_lieu     output_high(enable_573a) 
.................... #define     chot_ic_74573_a_goi_du_lieu    output_low(enable_573a) 
....................  
.................... #define     cho_ic_74573_b_goi_du_lieu     output_high(enable_573b) 
.................... #define     chot_ic_74573_b_goi_du_lieu    output_low(enable_573b) 
.................... void mo_ic_74573_a_thong_dl(); 
....................  
.................... //xxxxxxxxxxxxxxxxxxxxxxxxxxxxxxxxxxxxxxxxxxxx    
.................... const unsigned char ma7doan[16]= {0xc0,0xf9,0xa4,0xb0,0x99,0x92,0x82,0xf8, 
.................... 0x80,0x90,0x88, 0x83, 0xc6, 0xa1, 0x86, 0x8e}; 
.................... #define     maso0    0xc0 
.................... #define     maso1    0xf9 
.................... #define     maso2    0xa4 
.................... #define     maso3    0xb0 
.................... #define     maso4    0x99 
.................... #define     maso5    0x92 
.................... #define     maso6    0x82 
.................... #define     maso7    0xf8 
....................  
.................... //xxxxxxxxxxxxxxxxxxxxxxxxxxxxxxxxxxxxxxxxxxxx  
.................... //ham 102 
.................... //xxxxxxxxxxxxxxxxxxxxxxxxxxxxxxxxxxxxxxxxxxxx     
.................... //xuat 1 byte ra thanh ghi dich 
.................... //xxxxxxxxxxxxxxxxxxxxxxxxxxxxxxxxxxxxxxxxxxxx     
.................... void xuat_1byte(unsigned int8 bytexuat) 
.................... { 
....................    unsigned int8   sb,x;    
....................    #bit bseri  = x.7 
....................    x = bytexuat; 
*
0202:  MOVFF  69,6B
....................    for (sb=0;sb<8;sb++) 
0206:  CLRF   x6A
0208:  MOVF   x6A,W
020A:  SUBLW  07
020C:  BNC   022A
....................       {                                                  
....................          output_bit(ssdo,bseri);     
020E:  BTFSC  x6B.7
0210:  BRA    0216
0212:  BCF    F8D.2
0214:  BRA    0218
0216:  BSF    F8D.2
0218:  BCF    F96.2
....................          output_low(ssck); output_high(ssck); 
021A:  BCF    F96.0
021C:  BCF    F8D.0
021E:  BCF    F96.0
0220:  BSF    F8D.0
....................          x= x<<1;          
0222:  BCF    FD8.0
0224:  RLCF   x6B,F
0226:  INCF   x6A,F
0228:  BRA    0208
....................      } 
022A:  RETURN 0
.................... } 
.................... //xxxxxxxxxxxxxxxxxxxxxxxxxxxxxxxxxxxxxxxxxxxx  
.................... //ham 301 
.................... //xxxxxxxxxxxxxxxxxxxxxxxxxxxxxxxxxxxxxxxxxxxx 
.................... //chuong trinh con xuat 4 byte ra 32 led don 
.................... //xxxxxxxxxxxxxxxxxxxxxxxxxxxxxxxxxxxxxxxxxxxx 
.................... void xuat_32led_don_4byte(unsigned int8 bld3,bld2,bld1,bld0) 
.................... {      
....................       xuat_1byte(bld3);           
....................       xuat_1byte(bld2); 
....................       xuat_1byte(bld1);           
....................       xuat_1byte(bld0);             
....................       mo_32_led_don;       
....................       mo_ic_74573_a_thong_dl();             
....................       output_high(rck_32led);    output_low(rck_32led); 
....................       chot_ic_74573_a_goi_du_lieu;       
.................... } 
.................... //ham 302 
.................... //xxxxxxxxxxxxxxxxxxxxxxxxxxxxxxxxxxxxxxxxxxxx 
.................... //chuong trinh con xuat 2 word 16 bitra 32 led don 
.................... //xxxxxxxxxxxxxxxxxxxxxxxxxxxxxxxxxxxxxxxxxxxx 
.................... void xuat_32led_don_2word(unsigned int16 wld1, unsigned int16 wld0) 
.................... {      
....................      unsigned int8  b3,b2,b1,b0; 
....................      b3 = wld1>>8;  b2 = wld1;  
....................      b1 = wld0>>8;  b0 = wld0; 
....................      xuat_32led_don_4byte(b3,b2,b1,b0); 
.................... } 
.................... //ham 303 
.................... //xxxxxxxxxxxxxxxxxxxxxxxxxxxxxxxxxxxxxxxxxxxx 
.................... //chuong trinh con xuat 1 double word ra 32 led don 
.................... //xxxxxxxxxxxxxxxxxxxxxxxxxxxxxxxxxxxxxxxxxxxx 
.................... void xuat_32led_don_1dw(unsigned long long dwld) 
.................... {      
....................      unsigned int16  wd1,wd0; 
....................      wd1 = dwld>>16;  wd0 = dwld; 
....................      xuat_32led_don_2word(wd1,wd0); 
.................... } 
....................  
.................... //ham 304 
.................... //xxxxxxxxxxxxxxxxxxxxxxxxxxxxxxxxxxxxxxxxxxxx 
.................... //chuong trinh con mo 32 led don sang 
.................... //xxxxxxxxxxxxxxxxxxxxxxxxxxxxxxxxxxxxxxxxxxxx 
.................... void mo_32led_don() 
.................... {         
....................      xuat_32led_don_1dw(0xffffffff); 
.................... } 
.................... //ham 305 
.................... //xxxxxxxxxxxxxxxxxxxxxxxxxxxxxxxxxxxxxxxxxxxx 
.................... //chuong trinh con tat 32 led don  
.................... //xxxxxxxxxxxxxxxxxxxxxxxxxxxxxxxxxxxxxxxxxxxx 
.................... void tat_32led_don() 
.................... {         
....................      xuat_32led_don_1dw(0); 
.................... } 
.................... //xxxxxxxxxxxxxxxxxxxxxxxxxxxxxxxxxxxxxxxxxxxx     
.................... //xuat 1 bit roi tra lai ket qua sau khi dich di 1 bit 
.................... //xxxxxxxxxxxxxxxxxxxxxxxxxxxxxxxxxxxxxxxxxxxx     
.................... unsigned  int8 xuat_1bit(unsigned int8 bytexuat) 
.................... { 
....................       unsigned int8   xbitx;    
....................       #bit bserix  = xbitx.0 
....................       xbitx = bytexuat; 
....................                                              
....................       output_bit(ssdo,bserix);     
....................       output_low(ssck); output_high(ssck); 
....................       xbitx= xbitx>>1;    
....................       return(xbitx);   
.................... } 
.................... //xxxxxxxxxxxxxxxxxxxxxxxxxxxxxxxxxxxxxxxxxxxx  
.................... //ham 101 
.................... //xxxxxxxxxxxxxxxxxxxxxxxxxxxxxxxxxxxxxxxxxxxx     
.................... //ham khoi tao cac port va ic chot 
.................... //xxxxxxxxxxxxxxxxxxxxxxxxxxxxxxxxxxxxxxxxxxxx     
....................    void set_up_port_ic_chot() 
.................... {      
....................       set_tris_d(0x00);     
*
01E4:  MOVLW  00
01E6:  MOVWF  F95
....................       set_tris_e(0x00); 
01E8:  MOVWF  F96
....................       output_d(0xff); 
01EA:  CLRF   F95
01EC:  SETF   F8C
....................       tin_hieu_dk_74573_a=0xff;   
01EE:  SETF   16
....................       tin_hieu_dk_74573_b=0xff;       
01F0:  SETF   17
....................       chot_ic_74573_a_goi_du_lieu; 
01F2:  BCF    F95.1
01F4:  BCF    F8C.1
....................       chot_ic_74573_b_goi_du_lieu;   
01F6:  BCF    F95.0
01F8:  BCF    F8C.0
....................       rbdc=0; 
01FA:  CLRF   1A
01FC:  CLRF   19
01FE:  GOTO   12F2 (RETURN)
.................... } 
.................... //ham 104 
.................... //xxxxxxxxxxxxxxxxxxxxxxxxxxxxxxxxxxxxxxxxxxxx     
.................... //xuat các thieu dieu khien  
.................... //giu nguyen cac trang thai cua 2 module khac 
.................... //xxxxxxxxxxxxxxxxxxxxxxxxxxxxxxxxxxxxxxxxxxxx     
.................... void mo_ic_74573_a_thong_dl() 
.................... {      
....................       output_d(0x00); 
*
022C:  CLRF   F95
022E:  CLRF   F8C
....................       output_bit(g_32led,g_32a); 
0230:  BTFSC  16.4
0232:  BRA    0238
0234:  BCF    F8C.4
0236:  BRA    023A
0238:  BSF    F8C.4
023A:  BCF    F95.4
....................       output_bit(g_4led7doan,g_4a); 
023C:  BTFSC  16.6
023E:  BRA    0244
0240:  BCF    F8C.6
0242:  BRA    0246
0244:  BSF    F8C.6
0246:  BCF    F95.6
....................       output_bit(g_lcd20x4,g_lcda);   
0248:  BTFSC  16.2
024A:  BRA    0250
024C:  BCF    F8C.2
024E:  BRA    0252
0250:  BSF    F8C.2
0252:  BCF    F95.2
....................       cho_ic_74573_a_goi_du_lieu; 
0254:  BCF    F95.1
0256:  BSF    F8C.1
0258:  RETURN 0
.................... } 
.................... void mo_ic_74573_b_thong_dl() 
.................... {      
....................       output_d(0x00); 
*
0E3E:  CLRF   F95
0E40:  CLRF   F8C
....................       output_bit(g_matranled,g_mtb); 
0E42:  BTFSC  17.6
0E44:  BRA    0E4A
0E46:  BCF    F8C.6
0E48:  BRA    0E4C
0E4A:  BSF    F8C.6
0E4C:  BCF    F95.6
....................       output_bit(g_8ledquet,g_8b); 
0E4E:  BTFSC  17.4
0E50:  BRA    0E56
0E52:  BCF    F8C.4
0E54:  BRA    0E58
0E56:  BSF    F8C.4
0E58:  BCF    F95.4
....................       output_bit(g_buzerelay,g_rbdcb);  
0E5A:  BTFSC  17.2
0E5C:  BRA    0E62
0E5E:  BCF    F8C.2
0E60:  BRA    0E64
0E62:  BSF    F8C.2
0E64:  BCF    F95.2
....................       cho_ic_74573_b_goi_du_lieu; 
0E66:  BCF    F95.0
0E68:  BSF    F8C.0
0E6A:  RETURN 0
.................... } 
.................... //ham 401 
.................... //xxxxxxxxxxxxxxxxxxxxxxxxxxxxxxxxxxxxxxxxxxxx 
.................... //chuong trinh con xuat 4 byte ra 4 led 7 doan 
.................... //xxxxxxxxxxxxxxxxxxxxxxxxxxxxxxxxxxxxxxxxxxxx 
.................... void xuat_4led_7doan_4so(unsigned int bl743,bl742,bl741,bl740) 
.................... {      
....................       xuat_1byte(bl740);   xuat_1byte(bl741); 
*
11DA:  MOVFF  64,69
11DE:  CALL   0202
11E2:  MOVFF  63,69
11E6:  CALL   0202
....................       xuat_1byte(bl742);   xuat_1byte(bl743); 
11EA:  MOVFF  62,69
11EE:  CALL   0202
11F2:  MOVFF  61,69
11F6:  CALL   0202
....................        
....................       mo_4_led_7doan; 
11FA:  BCF    16.6
....................       mo_ic_74573_a_thong_dl(); 
11FC:  CALL   022C
....................         
....................       output_low(rck_4led7doan);   output_high(rck_4led7doan);  
1200:  BCF    F95.7
1202:  BCF    F8C.7
1204:  BCF    F95.7
1206:  BSF    F8C.7
....................       chot_ic_74573_a_goi_du_lieu; 
1208:  BCF    F95.1
120A:  BCF    F8C.1
120C:  GOTO   12B8 (RETURN)
.................... } 
.................... //ham 404 
.................... void xuat_4led_7doan_3so(unsigned int bl742,bl741,bl740) 
.................... {      
....................      xuat_4led_7doan_4so(0xff,bl742,bl741,bl740); 
.................... } 
.................... //ham 403 
.................... void xuat_4led_7doan_2so(unsigned int bl741,bl740) 
.................... {      
....................      xuat_4led_7doan_4so(0xff,0xff,bl741,bl740); 
.................... } 
.................... //ham 402 
.................... void xuat_4led_7doan_1so(unsigned int bl740) 
.................... {      
....................      xuat_4led_7doan_4so(0xff,0xff,0xff,bl740); 
.................... } 
....................  
.................... //ham 405 
.................... //xxxxxxxxxxxxxxxxxxxxxxxxxxxxxxxxxxxxxxxxxxxxxxxxxxxxxxxxxxxxx 
.................... //chuong trinh con hien thi du lieu 16 bit tren 4 led 7 doan 
.................... //xxxxxxxxxxxxxxxxxxxxxxxxxxxxxxxxxxxxxxxxxxxxxxxxxxxxxxxxxxxxx 
.................... unsigned char donvi4,chuc4,tram4,ngan4; 
.................... void  xuat_4led_7doan_giaima_xoa_so0 (unsigned int16 tam) 
.................... {          
....................       donvi4 = ma7doan[tam %10];          
....................       chuc4  = ma7doan[tam/10%10]; 
....................       tram4  = ma7doan[tam/100%10];  
....................       ngan4  = ma7doan[tam/1000%10];        
....................       if (ngan4==0xc0) 
....................       { 
....................          ngan4=0xff; 
....................          if (tram4==0xc0) 
....................          { 
....................             tram4=0xff; 
....................             if (chuc4==0xc0)   chuc4=0xff; 
....................          } 
....................       } 
....................       xuat_4led_7doan_4so(ngan4,tram4,chuc4,donvi4);    
.................... } 
.................... unsigned int8 lcddata=0;  
.................... unsigned int8 lcdcontrol=0; 
.................... unsigned int8 glcddata=0; 
.................... unsigned int8 glcdcontrol=0;  
.................... //ham 701 
.................... //xxxxxxxxxxxxxxxxxxxxxxxxxxxxxxxxxxxxxxxxxxxxxxxxxxxxxxxxxxxxx 
.................... //chuong trinh con xuat du lieu 4 byte ra glcd va lcd 
.................... //xxxxxxxxxxxxxxxxxxxxxxxxxxxxxxxxxxxxxxxxxxxxxxxxxxxxxxxxxxxxx 
.................... void xuat_glcd_lcd() 
.................... {       
....................     xuat_1byte(glcdcontrol);              
*
025A:  MOVFF  22,69
025E:  RCALL  0202
....................     xuat_1byte(glcddata); 
0260:  MOVFF  21,69
0264:  RCALL  0202
....................     xuat_1byte(lcdcontrol);        
0266:  MOVFF  20,69
026A:  RCALL  0202
....................     xuat_1byte(lcddata);       
026C:  MOVFF  1F,69
0270:  RCALL  0202
....................        
....................     mo_glcd_lcd; 
0272:  BCF    16.2
....................     mo_ic_74573_a_thong_dl();             
0274:  RCALL  022C
....................     output_high(rck_lcd20x4);      
0276:  BCF    F95.3
0278:  BSF    F8C.3
....................     output_low(rck_lcd20x4); 
027A:  BCF    F95.3
027C:  BCF    F8C.3
....................     chot_ic_74573_a_goi_du_lieu; 
027E:  BCF    F95.1
0280:  BCF    F8C.1
0282:  GOTO   0294 (RETURN)
.................... } 
.................... //ham 702 
.................... void xuat_lcd20x4(unsigned int8 lcd_signal,lcd_ins_hthi) 
.................... {      
....................     lcdcontrol = ~lcd_signal; 
0286:  MOVF   x67,W
0288:  MOVWF  20
028A:  COMF   20,F
....................     lcddata    = ~lcd_ins_hthi;       
028C:  MOVFF  68,1F
0290:  COMF   1F,F
....................     xuat_glcd_lcd(); 
0292:  BRA    025A
0294:  RETURN 0
.................... } 
.................... //ham 703 
.................... void xuat_glcd128x64(unsigned int8 glcd_signal,glcd_ins_hthi) 
.................... {      
....................     glcdcontrol = ~glcd_signal; 
....................     glcddata    = ~glcd_ins_hthi;      
....................     xuat_glcd_lcd(); 
.................... } 
.................... //ham 501 
.................... //xxxxxxxxxxxxxxxxxxxxxxxxxxxxxxxxxxxxxxxxxxxx 
.................... //chuong trinh con xuat 2 byte ra dk 1 led quet sang 
.................... //xxxxxxxxxxxxxxxxxxxxxxxxxxxxxxxxxxxxxxxxxxxx 
.................... void xuat_8led_7doan_quet_1(unsigned int ma,so_hthi) 
.................... {      
....................       xuat_1byte(~ma);   xuat_1byte(~so_hthi); 
*
0EAE:  MOVF   x61,W
0EB0:  MOVWF  x63
0EB2:  COMF   x63,F
0EB4:  MOVFF  63,69
0EB8:  CALL   0202
0EBC:  MOVFF  62,63
0EC0:  COMF   x63,F
0EC2:  MOVFF  63,69
0EC6:  CALL   0202
....................        
....................       mo_8_led_quet; 
0ECA:  BCF    17.4
....................       mo_ic_74573_b_thong_dl(); 
0ECC:  RCALL  0E3E
....................        
....................       output_high(rck_8ledquet); output_low(rck_8ledquet); 
0ECE:  BCF    F95.5
0ED0:  BSF    F8C.5
0ED2:  BCF    F95.5
0ED4:  BCF    F8C.5
....................       chot_ic_74573_b_goi_du_lieu; 
0ED6:  BCF    F95.0
0ED8:  BCF    F8C.0
0EDA:  GOTO   0EE4 (RETURN)
.................... } 
.................... //ham 502 
.................... //xxxxxxxxxxxxxxxxxxxxxxxxxxxxxxxxxxxxxxxxxxxx 
.................... //chuong trinh con xuat 2 byte ra tat 8 led quet 
.................... //xxxxxxxxxxxxxxxxxxxxxxxxxxxxxxxxxxxxxxxxxxxx 
.................... void xuat_8led_7doan_quet_tat_led() 
.................... { 
....................    xuat_8led_7doan_quet_1(0xff,0xff); 
0EDE:  SETF   x61
0EE0:  SETF   x62
0EE2:  BRA    0EAE
0EE4:  GOTO   0F2A (RETURN)
.................... } 
.................... //ham 503 
.................... //xxxxxxxxxxxxxxxxxxxxxxxxxxxxxxxxxxxxxxxxxxxx 
.................... //chuong trinh con hien thi led theo thu tu 
.................... //xxxxxxxxxxxxxxxxxxxxxxxxxxxxxxxxxxxxxxxxxxxx 
.................... const unsigned char ttledquet[8]= {0x7f,0xbf,0xdf,0xef,0xf7,0xfb,0xfd,0xfe}; 
.................... void xuat_8led_7doan_quet_2(unsigned int thutuled,so_hthi) 
.................... {          
....................       xuat_1byte(~ (ttledquet[thutuled]));   xuat_1byte(~so_hthi);      
*
0E6C:  CLRF   03
0E6E:  MOVF   x62,W
0E70:  MOVFF  FF2,64
0E74:  BCF    FF2.7
0E76:  CALL   00C0
0E7A:  BTFSC  x64.7
0E7C:  BSF    FF2.7
0E7E:  MOVWF  01
0E80:  MOVWF  x64
0E82:  COMF   x64,F
0E84:  MOVFF  64,69
0E88:  CALL   0202
0E8C:  MOVFF  63,64
0E90:  COMF   x64,F
0E92:  MOVFF  64,69
0E96:  CALL   0202
....................       mo_8_led_quet; 
0E9A:  BCF    17.4
....................       mo_ic_74573_b_thong_dl(); 
0E9C:  RCALL  0E3E
....................       output_high(rck_8ledquet); output_low(rck_8ledquet); 
0E9E:  BCF    F95.5
0EA0:  BSF    F8C.5
0EA2:  BCF    F95.5
0EA4:  BCF    F8C.5
....................       chot_ic_74573_b_goi_du_lieu; 
0EA6:  BCF    F95.0
0EA8:  BCF    F8C.0
0EAA:  GOTO   0F20 (RETURN)
.................... } 
.................... //ham 504 
.................... //xxxxxxxxxxxxxxxxxxxxxxxxxxxxxxxxxxxxxxxxxxxx 
.................... //chuong trinh con hien thi 8 so tren 8 led quet - co kiem tra 
.................... //xxxxxxxxxxxxxxxxxxxxxxxxxxxxxxxxxxxxxxxxxxxx 
.................... unsigned int8 led_7dq[8]={0xff,0xff,0xff,0xff,0xff,0xff,0xff,0xff}; 
.................... unsigned int8 tt8led=0; 
.................... void hien_thi_8led_7doan_quet() 
.................... {      
....................       for(tt8led=0;tt8led<8;tt8led++) 
*
0EE8:  CLRF   2B
0EEA:  MOVF   2B,W
0EEC:  SUBLW  07
0EEE:  BNC   0F2E
....................          if (led_7dq[tt8led]!=0xff) 
0EF0:  CLRF   03
0EF2:  MOVF   2B,W
0EF4:  ADDLW  23
0EF6:  MOVWF  FE9
0EF8:  MOVLW  00
0EFA:  ADDWFC 03,W
0EFC:  MOVWF  FEA
0EFE:  INCFSZ FEF,W
0F00:  BRA    0F04
0F02:  BRA    0F2A
....................          {            
....................             xuat_8led_7doan_quet_2(tt8led, led_7dq[tt8led]); 
0F04:  CLRF   03
0F06:  MOVF   2B,W
0F08:  ADDLW  23
0F0A:  MOVWF  FE9
0F0C:  MOVLW  00
0F0E:  ADDWFC 03,W
0F10:  MOVWF  FEA
0F12:  MOVFF  FEF,61
0F16:  MOVFF  2B,62
0F1A:  MOVFF  61,63
0F1E:  BRA    0E6C
.................... //!            delay_us(100);  //thuc te 
....................             delay_ms(2);     //mo phong proteus 
0F20:  MOVLW  02
0F22:  MOVWF  x61
0F24:  CALL   02C6
....................             xuat_8led_7doan_quet_tat_led();            
0F28:  BRA    0EDE
0F2A:  INCF   2B,F
0F2C:  BRA    0EEA
....................             } 
0F2E:  RETURN 0
.................... } 
.................... //ham 505 
.................... //xxxxxxxxxxxxxxxxxxxxxxxxxxxxxxxxxxxxxxxxxxxx 
.................... //chuong trinh con hien thi 8 so tren 8 led quet - khong kiem tra 
.................... //xxxxxxxxxxxxxxxxxxxxxxxxxxxxxxxxxxxxxxxxxxxx 
.................... void hien_thi_8led_7doan_quet_all() 
.................... {      
....................       for(tt8led=0;tt8led<8;tt8led++)          
....................          {            
....................             xuat_8led_7doan_quet_2(tt8led, led_7dq[tt8led]); 
....................             //delay_us(100);  //thuc te 
....................             delay_ms(20);     //mo phong proteus 
....................             xuat_8led_7doan_quet_tat_led();            
....................             } 
.................... } 
....................  
.................... void delay_quet_8led(unsigned int16 dl) 
.................... {  
....................       unsigned int8 i; 
....................       for (i=0; i<dl;i++) 
....................       hien_thi_8led_7doan_quet_all(); 
.................... }  
....................  
.................... void giai_ma_gan_cho_8led_quet_16_xoa(unsigned int16 x) 
.................... {      
....................       led_7dq[0]= ma7doan [x %10];     
....................       led_7dq[1]= ma7doan [x/10%10]; 
....................       led_7dq[2]= ma7doan [x/100%10];     
....................       led_7dq[3]= ma7doan [x/1000%10]; 
....................       led_7dq[4]= ma7doan [x/10000%10]; 
....................       if (led_7dq[4]==maso0)  
....................       { 
....................             led_7dq[4]=0xff; 
....................             if (led_7dq[3]==maso0)  
....................             { 
....................                led_7dq[3]=0xff; 
....................                if (led_7dq[2]==maso0)  
....................                { 
....................                   led_7dq[2]=0xff; 
....................                   if (led_7dq[1]==maso0)  
....................                   { 
....................                      led_7dq[1]=0xff; 
....................                   } 
....................                } 
....................             } 
....................       } 
....................              
.................... } 
.................... //xxxxxxxxxxxxxxxxxxxxxxxxxxxxxxxxxxxxxxxxxxxx          
.................... void xuat_2byte(unsigned int16 byte2xuat) 
.................... { 
....................    int8 sbb; 
....................    unsigned int16   xx;   //short  bseri; 
....................    #bit bserix  = xx.15 
....................    xx = byte2xuat; 
....................    for (sbb=0;sbb<16;sbb++) 
....................       {                                                  
....................          output_bit(ssdo,bserix);     
....................          output_low(ssck);          
....................          output_high(ssck); 
....................          xx= xx<<1;          
....................      } 
.................... } 
.................... //xxxxxxxxxxxxxxxxxxxxxxxxxxxxxxxxxxxxxxxxxxxx 
.................... //chuong trinh con xuat ra led ma tran 
.................... //xxxxxxxxxxxxxxxxxxxxxxxxxxxxxxxxxxxxxxxxxxxx 
.................... void xuat_matranled(unsigned int16 mahang,unsigned int16 macot1, 
.................... unsigned int16 macot2,unsigned int16 macot3) 
.................... {       
....................       xuat_2byte(macot3); 
....................       xuat_2byte(macot2); 
....................       xuat_2byte(macot1); 
....................       xuat_2byte(mahang); 
....................        
....................       mo_led_matran; 
....................       mo_ic_74573_b_thong_dl(); 
....................        
....................       output_high(rck_matranled); output_low(rck_matranled);  
....................       chot_ic_74573_b_goi_du_lieu; 
.................... } 
.................... //xxxxxxxxxxxxxxxxxxxxxxxxxxxxxxxxxxxxxxxxxxxx 
.................... //chuong trinh con xuat ra led ma tran 
.................... //xxxxxxxxxxxxxxxxxxxxxxxxxxxxxxxxxxxxxxxxxxxx 
.................... void tat_matranled() 
.................... {       
....................       xuat_2byte(0); 
....................       xuat_2byte(0); 
....................       xuat_2byte(0); 
....................       xuat_2byte(0);            
....................       output_high(rck_matranled);  
....................       output_low(rck_matranled); 
.................... } 
.................... unsigned  int8 hieu_chinh_4bit_cao(unsigned int8 xzy) 
.................... { 
....................       int1  btg; 
....................       unsigned int8   bx;    
....................       #bit bit4  = bx.4 
....................       #bit bit5  = bx.5 
....................       #bit bit6  = bx.6 
....................       #bit bit7  = bx.7 
....................       bx=xzy; 
....................       btg=bit4;   bit4=bit7;  bit7=btg; 
....................       btg=bit5;   bit5=bit6;  bit6=btg;       
....................       return(bx);   
.................... } 
.................... //ham 601 
.................... //xxxxxxxxxxxxxxxxxxxxxxxxxxxxxxxxxxxxxxxxxxxxxxxxxxxx 
.................... //module dieu khien relay,triac, buzzer, dong co, sim 
.................... //xxxxxxxxxxxxxxxxxxxxxxxxxxxxxxxxxxxxxxxxxxxxxxxxxxxx 
.................... void xuat_buzzer_relay() 
.................... {      
....................    unsigned int8 rbdc1,rbdc2; 
....................       rbdc1=rbdc; rbdc2=rbdc>>8;       
....................       xuat_1byte(rbdc2);       
....................       xuat_1byte(rbdc1); 
....................       mo_relay_buzzer_dc; 
....................       mo_ic_74573_b_thong_dl(); 
....................        
....................       output_high(rck_buzerelay);   output_low(rck_buzerelay); 
....................       chot_ic_74573_b_goi_du_lieu; 
.................... } 
.................... //ham 602 
.................... //xxxxxxxxxxxxxxxxxxxxxxxxxxxxxxxxxxxxxxxxxxxxxxxxxxxx 
.................... void buzzer_on() 
.................... {     
....................       buzzer=1; 
....................       xuat_buzzer_relay();          
.................... } 
.................... //ham 603 
.................... //xxxxxxxxxxxxxxxxxxxxxxxxxxxxxxxxxxxxxxxxxxxxxxxxxxxx 
.................... void buzzer_off() 
.................... {      
....................       buzzer=0; 
....................       xuat_buzzer_relay(); 
.................... } 
.................... //ham 604 
.................... //xxxxxxxxxxxxxxxxxxxxxxxxxxxxxxxxxxxxxxxxxxxxxxxxxxxx 
.................... void relay_1_on() 
.................... {     
....................       relay_1=1; 
....................       xuat_buzzer_relay();          
.................... } 
.................... //ham 603 
.................... //xxxxxxxxxxxxxxxxxxxxxxxxxxxxxxxxxxxxxxxxxxxxxxxxxxxx 
.................... void relay_1_off() 
.................... {     
....................       relay_1=0; 
....................       xuat_buzzer_relay();          
.................... } 
.................... //ham 604 
.................... //xxxxxxxxxxxxxxxxxxxxxxxxxxxxxxxxxxxxxxxxxxxxxxxxxxxx 
.................... void relay_2_on() 
.................... {     
....................       relay_2=1; 
....................       xuat_buzzer_relay();          
.................... } 
.................... //ham 607 
.................... //xxxxxxxxxxxxxxxxxxxxxxxxxxxxxxxxxxxxxxxxxxxxxxxxxxxx 
.................... void relay_2_off() 
.................... {     
....................       relay_2=0; 
....................       xuat_buzzer_relay();          
.................... } 
.................... //ham 608 
.................... //xxxxxxxxxxxxxxxxxxxxxxxxxxxxxxxxxxxxxxxxxxxxxxxxxxxx 
.................... void relay_1_relay_2_on() 
.................... {     
....................       relay_1=1;  relay_2=1; 
....................       xuat_buzzer_relay();          
.................... } 
.................... //ham 609 
.................... //xxxxxxxxxxxxxxxxxxxxxxxxxxxxxxxxxxxxxxxxxxxxxxxxxxxx 
.................... void relay_1_relay_2_off() 
.................... {     
....................       relay_1=0;  relay_2=0; 
....................       xuat_buzzer_relay();          
.................... } 
.................... //ham 610 
.................... //xxxxxxxxxxxxxxxxxxxxxxxxxxxxxxxxxxxxxxxxxxxxxxxxxxxx 
.................... void triac_1_on() 
.................... {     
....................       triac_1=1; 
....................       xuat_buzzer_relay();          
.................... } 
.................... //ham 611 
.................... //xxxxxxxxxxxxxxxxxxxxxxxxxxxxxxxxxxxxxxxxxxxxxxxxxxxx 
.................... void triac_1_off() 
.................... {     
....................       triac_1=0; 
....................       xuat_buzzer_relay();          
.................... } 
.................... //ham 612 
.................... //xxxxxxxxxxxxxxxxxxxxxxxxxxxxxxxxxxxxxxxxxxxxxxxxxxxx 
.................... void triac_2_on() 
.................... {     
....................       triac_2=1; 
....................       xuat_buzzer_relay();          
.................... } 
.................... //ham 613 
.................... //xxxxxxxxxxxxxxxxxxxxxxxxxxxxxxxxxxxxxxxxxxxxxxxxxxxx 
.................... void triac_2_off() 
.................... {     
....................       triac_2=0; 
....................       xuat_buzzer_relay();          
.................... } 
.................... //xxxxxxxxxxxxxxxxxxxxxxxxxxxxxxxxxxxxxxxxxxxx 
....................  
....................  
....................  
.................... //!#include <tv_pickit2_shift_1.c> 
.................... #include <tv_pickit2_shift_key4x4_138.c> 
.................... const unsigned char maquetkey[4]= {0x3f,0x7f,0xbf,0xff}; 
.................... unsigned int8  mpt1=0,mpt2=0;   
.................... unsigned int key_nhan() 
.................... {     signed int8 maphim,hang,cot; 
....................       maphim=hang=0xff; 
....................       for(cot=0;cot<4;cot++) 
....................             {    
....................                output_b(maquetkey[cot]); 
....................                if         (!input(pin_b2))      {hang=3;   break;} 
....................                else    if (!input(pin_b3))      {hang=2;   break;} 
....................                else    if (!input(pin_b4))      {hang=1;   break;} 
....................                else    if (!input(pin_b5))      {hang=0;   break;} 
....................                delay_ms(30); //them vao de xu ly loi qua tai cpu 
....................             }           
....................          if (hang!=0xff)   maphim   = cot*4 + hang; 
....................          return(maphim); 
.................... } 
....................  
.................... unsigned int key_4x4_dw() 
.................... {      
....................       mpt1=key_nhan();        
....................       if (mpt1!=0xff)    
....................       {  delay_ms(1);   
....................          mpt1=key_nhan(); 
....................          do{mpt2=key_nhan(); delay_ms(30);} 
....................          while (mpt2==mpt1); 
....................       }              
....................       return(mpt1); 
.................... } 
....................  
.................... unsigned int key_4x4_up() 
.................... {             
....................       mpt1=key_nhan(); 
....................       if (mpt1!=0xff)    
....................       {   
....................          if (mpt1!=mpt2) 
....................             { 
....................                return(mpt1);  //phim moi 
....................                mpt2=mpt1; 
....................             } 
....................          else 
....................          { 
....................             delay_ms(1); 
....................             mpt1=key_nhan(); 
....................             do 
....................             { 
....................                mpt2=key_nhan(); 
....................                } 
....................             while (mpt2!=mpt1); 
....................                return(mpt1);     //thoat vi trung ma phim da nhan 
....................                mpt2=mpt1;            
....................          } 
....................       }   
....................       else  
....................       { 
....................          return(mpt1);  //thoat vi khong nhan 
....................          mpt2=mpt1; 
....................       }       
.................... } 
....................  
....................  
....................  
.................... #include <tv_pickit2_shift_ds18b20.c> 
.................... #define     touch_pin pin_a5 
.................... #include    <touch.c> 
.................... /////////////////////////////////////////////////////////////////////////// 
.................... ////                        Dallas Touch Driver                        //// 
.................... ////                                                                   //// 
.................... ////                                                                   //// 
.................... ////  data = touch_read_bit()     Reads one bit from a touch device    //// 
.................... ////                                                                   //// 
.................... ////  data = touch_read_BYTE()    Reads one byte from a touch device.  //// 
.................... ////                                                                   //// 
.................... ////  ok = touch_write_bit(data)  Writes one bit to a touch device     //// 
.................... ////                              and returns true if all went ok.     //// 
.................... ////                              A false indicates a collision with   //// 
.................... ////                              another device.                      //// 
.................... ////                                                                   //// 
.................... ////  ok = touch_write_byte(data) Writes one byte to a touch device    //// 
.................... ////                              and returns true if all went ok.     //// 
.................... ////                              A false indicates a collision with   //// 
.................... ////                              another device.                      //// 
.................... ////                                                                   //// 
.................... ////  present = touch_present()   Issues a reset and returns true      //// 
.................... ////                              if the touch device is there.        //// 
.................... ////                                                                   //// 
.................... ////  reset_pulse()               Issues a reset and waits for a       //// 
.................... ////                              present pulse.                       //// 
.................... ////                                                                   //// 
.................... /////////////////////////////////////////////////////////////////////////// 
.................... ////        (C) Copyright 1996,2010 Custom Computer Services           //// 
.................... //// This source code may only be used by licensed users of the CCS C  //// 
.................... //// compiler.  This source code may only be distributed to other      //// 
.................... //// licensed users of the CCS C compiler.  No other use, reproduction //// 
.................... //// or distribution is permitted without written permission.          //// 
.................... //// Derivative programs created using this software in object code    //// 
.................... //// form are not restricted in any way.                               //// 
.................... /////////////////////////////////////////////////////////////////////////// 
....................  
.................... #ifndef  TOUCH_C 
.................... #define  TOUCH_C 
....................  
.................... #ifndef TOUCH_PIN 
....................    #define TOUCH_PIN  PIN_B0 
.................... #endif 
....................  
.................... #define TOUCH_PIN_LOW()    output_drive(TOUCH_PIN); output_low(TOUCH_PIN) 
.................... #define TOUCH_PIN_HIGH()    output_drive(TOUCH_PIN); output_high(TOUCH_PIN) 
.................... #define TOUCH_PIN_FLOAT()  output_float(TOUCH_PIN) 
.................... #define TOUCH_PIN_READ()      input_state(TOUCH_PIN) 
....................  
.................... ///////////////////////////// 
.................... ////                     //// 
.................... //// Function Prototypes //// 
.................... ////                     //// 
.................... ///////////////////////////// 
....................  
.................... /* 
.................... int1 touch_read_bit() 
.................... This will read back a bit from the DS1993 
.................... PARAMS: none 
.................... RETURNS: A bit from the DS1993 
.................... */ 
.................... int1 touch_read_bit(); 
....................  
.................... /* 
.................... BYTE touch_read_byte() 
.................... This will read back a byte from the DS1993 
.................... PARAMS: none 
.................... RETURNS: A byte from the DS1993 
.................... */ 
.................... BYTE touch_read_byte(); 
....................  
.................... /* 
.................... BOOLEAN touch_write_bit(int1 data) 
.................... This will write a bit to the DS1993 
.................... PARAMS: The bit to write 
.................... RETURNS: True if completed successfully, false if otherwise 
.................... */ 
.................... BOOLEAN touch_write_bit(int1 data); 
....................  
.................... /* 
.................... BOOLEAN touch_write_byte(BYTE data) 
.................... This will write a byte to the DS1993 
.................... PARAMS: The byte to write 
.................... RETURNS: True if completed successfully, false if otherwise 
.................... */ 
.................... BOOLEAN touch_write_byte(BYTE data); 
....................  
.................... /* 
.................... BOOLEAN touch_present() 
.................... This will evaluate whether or not there is a touch present on the DS1993 
.................... PARAMS: none 
.................... RETURNS: True if a touch is present, false if otherwise 
.................... */ 
.................... BOOLEAN touch_present(); 
....................  
.................... /* 
.................... void reset_pulse() 
.................... This will send the DS1993 a reset pulse 
.................... PARAMS: none 
.................... RETURNS: none 
.................... */ 
.................... void reset_pulse(); 
....................  
.................... ////////////////////////////////// 
.................... ////                          //// 
.................... //// Function Implementations //// 
.................... ////                          //// 
.................... ////////////////////////////////// 
....................  
.................... /* 
.................... int1 touch_read_bit() 
.................... This will read back a bit from the DS1993 
.................... PARAMS: none 
.................... RETURNS: A bit from the DS1993 
.................... */ 
.................... int1 touch_read_bit() 
.................... { 
....................    int1 data; 
....................  
....................    TOUCH_PIN_LOW(); 
*
10C8:  BCF    F92.5
10CA:  BCF    F92.5
10CC:  BCF    F89.5
....................    delay_us(14); 
10CE:  MOVLW  16
10D0:  MOVWF  00
10D2:  DECFSZ 00,F
10D4:  BRA    10D2
10D6:  BRA    10D8
10D8:  NOP   
....................    TOUCH_PIN_FLOAT(); 
10DA:  BSF    F92.5
....................    delay_us(5); 
10DC:  MOVLW  07
10DE:  MOVWF  00
10E0:  DECFSZ 00,F
10E2:  BRA    10E0
10E4:  BRA    10E6
10E6:  NOP   
....................    data = TOUCH_PIN_READ(); 
10E8:  BCF    5F.0
10EA:  BTFSC  F80.5
10EC:  BSF    5F.0
....................    delay_us(100); 
10EE:  MOVLW  A6
10F0:  MOVWF  00
10F2:  DECFSZ 00,F
10F4:  BRA    10F2
10F6:  NOP   
....................  
....................    return data; 
10F8:  MOVLW  00
10FA:  BTFSC  5F.0
10FC:  MOVLW  01
10FE:  MOVWF  01
1100:  GOTO   1110 (RETURN)
.................... } 
....................  
.................... /* 
.................... BYTE touch_read_byte() 
.................... This will read back a byte from the DS1993 
.................... PARAMS: none 
.................... RETURNS: A byte from the DS1993 
.................... */ 
.................... BYTE touch_read_byte() 
.................... { 
....................    BYTE i,data; 
....................  
....................    for(i=1; i <= 8; ++i) 
1104:  MOVLW  01
1106:  MOVWF  5D
1108:  MOVF   5D,W
110A:  SUBLW  08
110C:  BNC   1120
....................       shift_right(&data, 1, touch_read_bit()); 
110E:  BRA    10C8
1110:  MOVF   01,F
1112:  BNZ   1118
1114:  BCF    FD8.0
1116:  BRA    111A
1118:  BSF    FD8.0
111A:  RRCF   5E,F
111C:  INCF   5D,F
111E:  BRA    1108
....................  
....................    return data; 
1120:  MOVFF  5E,01
1124:  RETURN 0
.................... } 
....................  
.................... /* 
.................... BOOLEAN touch_write_bit(int1 data) 
.................... This will write a bit to the DS1993 
.................... PARAMS: The bit to write 
.................... RETURNS: True if completed successfully, false if otherwise 
.................... */ 
.................... BOOLEAN touch_write_bit(int1 data) 
.................... { 
....................    TOUCH_PIN_LOW(); 
*
039C:  BCF    F92.5
039E:  BCF    F92.5
03A0:  BCF    F89.5
....................    delay_us(10); 
03A2:  MOVLW  10
03A4:  MOVWF  00
03A6:  DECFSZ 00,F
03A8:  BRA    03A6
03AA:  NOP   
....................    if(data) 
03AC:  MOVF   x60,F
03AE:  BZ    03CC
....................    { 
....................       TOUCH_PIN_HIGH(); 
03B0:  BCF    F92.5
03B2:  BCF    F92.5
03B4:  BSF    F89.5
....................       delay_us(10); 
03B6:  MOVLW  10
03B8:  MOVWF  00
03BA:  DECFSZ 00,F
03BC:  BRA    03BA
03BE:  NOP   
....................       if(!TOUCH_PIN_READ()) 
03C0:  BTFSC  F80.5
03C2:  BRA    03CA
....................          return FALSE; 
03C4:  MOVLW  00
03C6:  MOVWF  01
03C8:  BRA    0408
....................    } 
03CA:  BRA    03E6
....................    else 
....................    { 
....................       TOUCH_PIN_LOW(); 
03CC:  BCF    F92.5
03CE:  BCF    F92.5
03D0:  BCF    F89.5
....................       delay_us(10); 
03D2:  MOVLW  10
03D4:  MOVWF  00
03D6:  DECFSZ 00,F
03D8:  BRA    03D6
03DA:  NOP   
....................       if(TOUCH_PIN_READ()) 
03DC:  BTFSS  F80.5
03DE:  BRA    03E6
....................          return FALSE; 
03E0:  MOVLW  00
03E2:  MOVWF  01
03E4:  BRA    0408
....................    } 
....................    delay_us(50); 
03E6:  MOVLW  52
03E8:  MOVWF  00
03EA:  DECFSZ 00,F
03EC:  BRA    03EA
03EE:  BRA    03F0
03F0:  NOP   
....................    TOUCH_PIN_HIGH(); 
03F2:  BCF    F92.5
03F4:  BCF    F92.5
03F6:  BSF    F89.5
....................    delay_us(50); 
03F8:  MOVLW  52
03FA:  MOVWF  00
03FC:  DECFSZ 00,F
03FE:  BRA    03FC
0400:  BRA    0402
0402:  NOP   
....................    return TRUE; 
0404:  MOVLW  01
0406:  MOVWF  01
0408:  GOTO   0426 (RETURN)
.................... } 
....................  
.................... /* 
.................... BOOLEAN touch_write_byte(BYTE data) 
.................... This will write a byte to the DS1993 
.................... PARAMS: The byte to write 
.................... RETURNS: True if completed successfully, false if otherwise 
.................... */ 
.................... BOOLEAN touch_write_byte(BYTE data) 
.................... { 
....................    BYTE i; 
....................  
....................    for(i=1; i<=8; ++i) 
040C:  MOVLW  01
040E:  MOVWF  5E
0410:  MOVF   5E,W
0412:  SUBLW  08
0414:  BNC   0434
....................       if(!touch_write_bit(shift_right(&data, 1, 0))) 
0416:  BCF    FD8.0
0418:  RRCF   5D,F
041A:  MOVLW  00
041C:  BTFSC  FD8.0
041E:  MOVLW  01
0420:  MOVWF  5F
0422:  MOVWF  x60
0424:  BRA    039C
0426:  MOVF   01,F
0428:  BNZ   0430
....................          return FALSE; 
042A:  MOVLW  00
042C:  MOVWF  01
042E:  BRA    0438
0430:  INCF   5E,F
0432:  BRA    0410
....................  
....................    return TRUE; 
0434:  MOVLW  01
0436:  MOVWF  01
0438:  RETURN 0
.................... } 
....................  
.................... /* 
.................... BOOLEAN touch_present() 
.................... This will evaluate whether or not there is a touch present on the DS1993 
.................... PARAMS: none 
.................... RETURNS: True if a touch is present, false if otherwise 
.................... */ 
.................... BOOLEAN touch_present() 
.................... { 
....................    BOOLEAN present; 
....................    TOUCH_PIN_LOW(); 
*
034E:  BCF    F92.5
0350:  BCF    F92.5
0352:  BCF    F89.5
....................    delay_us(500); 
0354:  MOVLW  02
0356:  MOVWF  5E
0358:  MOVLW  F9
035A:  MOVWF  5F
035C:  RCALL  0334
035E:  DECFSZ 5E,F
0360:  BRA    0358
....................    TOUCH_PIN_FLOAT(); 
0362:  BSF    F92.5
....................    delay_us(5); 
0364:  MOVLW  07
0366:  MOVWF  00
0368:  DECFSZ 00,F
036A:  BRA    0368
036C:  BRA    036E
036E:  NOP   
....................  
....................    if(!TOUCH_PIN_READ()) 
0370:  BTFSC  F80.5
0372:  BRA    037A
....................       return FALSE; 
0374:  MOVLW  00
0376:  MOVWF  01
0378:  BRA    039A
....................  
....................    delay_us(65); 
037A:  MOVLW  6B
037C:  MOVWF  00
037E:  DECFSZ 00,F
0380:  BRA    037E
0382:  BRA    0384
0384:  NOP   
....................    present = !TOUCH_PIN_READ(); 
0386:  BCF    5D.0
0388:  BTFSS  F80.5
038A:  BSF    5D.0
....................    delay_us(240); 
038C:  MOVLW  F0
038E:  MOVWF  5F
0390:  RCALL  0334
....................    return present; 
0392:  MOVLW  00
0394:  BTFSC  5D.0
0396:  MOVLW  01
0398:  MOVWF  01
039A:  RETURN 0
.................... } 
....................  
.................... /* 
.................... void reset_pulse() 
.................... This will send the DS1993 a reset pulse 
.................... PARAMS: none 
.................... RETURNS: none 
.................... */ 
.................... void reset_pulse() 
.................... { 
....................    TOUCH_PIN_LOW(); 
....................    delay_us(500); 
....................    TOUCH_PIN_FLOAT(); 
....................    delay_us(5); 
....................    while(!touch_present()); 
.................... } 
....................  
....................  
.................... #endif 
....................  
.................... #define       skip_rom              0xcc 
.................... #define       convert_t             0x44 
.................... #define       read_scratchpad       0xbe 
.................... #define       write_scratchpad      0x4e 
.................... #define       copy_scratchpad       0x48     
.................... unsigned int8     ds18al, ds18ah, ds18a_tam; 
.................... unsigned int16    ds18a; 
.................... void  khoi_tao_ds18b20() 
.................... {                          
....................       touch_present(); 
*
043A:  RCALL  034E
....................       touch_write_byte(skip_rom);       
043C:  MOVLW  CC
043E:  MOVWF  5D
0440:  RCALL  040C
....................       touch_write_byte(write_scratchpad);     
0442:  MOVLW  4E
0444:  MOVWF  5D
0446:  RCALL  040C
....................       touch_write_byte(0x0);       // ghi 2 byte rong 
0448:  CLRF   5D
044A:  RCALL  040C
....................       touch_write_byte(0x0);       // 
044C:  CLRF   5D
044E:  RCALL  040C
....................       touch_write_byte(0x1f);      //cau hinh do phan giai 9 bit 
0450:  MOVLW  1F
0452:  MOVWF  5D
0454:  RCALL  040C
....................  
....................       touch_present(); 
0456:  RCALL  034E
....................       touch_write_byte(skip_rom);       
0458:  MOVLW  CC
045A:  MOVWF  5D
045C:  RCALL  040C
....................       touch_write_byte(copy_scratchpad);  
045E:  MOVLW  48
0460:  MOVWF  5D
0462:  RCALL  040C
0464:  GOTO   130E (RETURN)
.................... } 
.................... void  doc_giatri_ds18b20() 
.................... {  
....................       touch_write_byte(skip_rom); 
*
1126:  MOVLW  CC
1128:  MOVWF  5D
112A:  CALL   040C
....................       touch_write_byte (convert_t);    
112E:  MOVLW  44
1130:  MOVWF  5D
1132:  CALL   040C
....................       touch_present(); 
1136:  CALL   034E
....................       touch_write_byte(skip_rom); 
113A:  MOVLW  CC
113C:  MOVWF  5D
113E:  CALL   040C
....................       touch_write_byte(read_scratchpad);   
1142:  MOVLW  BE
1144:  MOVWF  5D
1146:  CALL   040C
....................       ds18al = touch_read_byte(); 
114A:  RCALL  1104
114C:  MOVFF  01,2E
....................       ds18ah = touch_read_byte();       
1150:  RCALL  1104
1152:  MOVFF  01,2F
....................       ds18a   =  make16(ds18ah,ds18al);         
1156:  MOVFF  2F,32
115A:  MOVFF  2E,31
115E:  GOTO   13C6 (RETURN)
.................... } 
....................              
....................  
....................  
.................... #include <tv_pickit2_shift_ds1307_i2c.c> 
.................... #include <TV_PICKIT2_SHIFT_LCD.C> 
.................... unsigned int8 lcd_control;   
.................... #bit lcd_p = lcd_control.3 
.................... #bit lcd_rs = lcd_control.2 
.................... #bit lcd_rw = lcd_control.1 
.................... #bit lcd_e  = lcd_control.0 
....................  
.................... #define lcd_function_set       0x38 
.................... #define lcd_display_control    0x0c 
.................... #define lcd_clear_display      0x01 
.................... #define lcd_entry_mode         0x06 
.................... #define lcd_shift_left         0x18 
.................... #define lcd_shift_right        0x1c 
....................  
.................... #define lcd_addr_line1         0x80 
.................... #define lcd_addr_line2         0xc0 
.................... #define lcd_addr_line3         0x94 
.................... #define lcd_addr_line4         0xd4 
....................  
.................... void lcd_xuat_8bit(int8 lcd_data_x) 
.................... { 
....................       lcd_e=1; xuat_lcd20x4(lcd_control,lcd_data_x);      
*
0296:  BSF    33.0
0298:  MOVFF  33,67
029C:  MOVFF  66,68
02A0:  RCALL  0286
....................       lcd_e=0; xuat_lcd20x4(lcd_control,lcd_data_x);  
02A2:  BCF    33.0
02A4:  MOVFF  33,67
02A8:  MOVFF  66,68
02AC:  RCALL  0286
02AE:  RETURN 0
.................... } 
.................... void lcd_command(int8 lcd_data_x)    
....................   { 
....................       lcd_rs = 0; 
02B0:  BCF    33.2
....................       lcd_xuat_8bit(lcd_data_x); 
02B2:  MOVFF  65,66
02B6:  RCALL  0296
....................       delay_us(20); 
02B8:  MOVLW  20
02BA:  MOVWF  00
02BC:  DECFSZ 00,F
02BE:  BRA    02BC
02C0:  BRA    02C2
02C2:  NOP   
02C4:  RETURN 0
....................   } 
.................... void lcd_data(int8 lcd_data_x)        
....................   { 
....................       lcd_rs = 1;      
*
0468:  BSF    33.2
....................       lcd_xuat_8bit(lcd_data_x); 
046A:  MOVFF  62,66
046E:  RCALL  0296
....................       delay_us(20); 
0470:  MOVLW  20
0472:  MOVWF  00
0474:  DECFSZ 00,F
0476:  BRA    0474
0478:  BRA    047A
047A:  NOP   
047C:  RETURN 0
....................   } 
....................    
.................... void setup_lcd () 
.................... {                      
....................          lcd_e  = 0;  
*
02EC:  BCF    33.0
....................          lcd_rw = 0;  
02EE:  BCF    33.1
....................          lcd_rs = 1;  
02F0:  BSF    33.2
....................          lcd_p =0; 
02F2:  BCF    33.3
....................          lcd_command(lcd_function_set);          
02F4:  MOVLW  38
02F6:  MOVWF  x65
02F8:  RCALL  02B0
....................          delay_us(40); 
02FA:  MOVLW  42
02FC:  MOVWF  00
02FE:  DECFSZ 00,F
0300:  BRA    02FE
0302:  NOP   
....................          lcd_command(lcd_display_control);    
0304:  MOVLW  0C
0306:  MOVWF  x65
0308:  RCALL  02B0
....................          delay_us(40); 
030A:  MOVLW  42
030C:  MOVWF  00
030E:  DECFSZ 00,F
0310:  BRA    030E
0312:  NOP   
....................          lcd_command(lcd_clear_display);       
0314:  MOVLW  01
0316:  MOVWF  x65
0318:  RCALL  02B0
....................          delay_ms(2); 
031A:  MOVLW  02
031C:  MOVWF  x61
031E:  RCALL  02C6
....................          lcd_command(lcd_entry_mode);        
0320:  MOVLW  06
0322:  MOVWF  x65
0324:  RCALL  02B0
....................          delay_us(40);                 
0326:  MOVLW  42
0328:  MOVWF  00
032A:  DECFSZ 00,F
032C:  BRA    032A
032E:  NOP   
0330:  GOTO   130A (RETURN)
.................... } 
....................  
.................... const unsigned char lcd_so_x[16][6] ={ 
....................                   0,1,2,5,3,4,               // so 0 
....................                   1,2,32,3,7,3,              // so 1 
....................                   6,6,2,5,3,3,               // so 2 
....................                   6,6,2,3,3,4,               // so 3 
....................                   7,3,7,32,32,7,             // so 4 
....................                   7,6,6,3,3,4,               // so 5 
....................                   0,6,6,5,3,4,               // so 6 
....................                   1,1,7,32,32,7,             // so 7 
....................                   0,6,2,5,3,4,               // so 8 
....................                   0,6,2,3,3,4						// so 9 
....................                   32,32,32,32,32,32,			// xoa so 0  
....................                   7,6,6,3,3,4,					// chu s 
....................                   7,6,7,7,32,32,					// chu p 
....................                   32,32,32,32,3,32,				//dau cham 
....................                   1,7,1,32,7,32					//chu t 
....................                   7,32,32,7,3,3					// chu l 
....................                   };		  	 
....................                    
.................... const unsigned char lcd_so_xx[10][9] ={ 
....................                   0,1,2,7,32,7,5,3,4,               // so 0 
....................                   1,2,32,3,7,3,              // so 1 
....................                   6,6,2,5,3,3,               // so 2 
....................                   6,6,2,3,3,4,               // so 3 
....................                   7,3,7,32,32,7,             // so 4 
....................                   7,6,6,3,3,4,               // so 5 
....................                   0,6,6,5,3,4,               // so 6 
....................                   1,1,7,32,32,7,             // so 7 
....................                   0,6,2,5,3,4,               // so 8 
....................                   0,6,2,3,3,4};             // so 9                   
....................                    
.................... const unsigned char lcd_ma_8doan[] = { 
....................    0x07,0x0f,0x1f,0x1f,0x1f,0x1f,0x1f,0x1f,  //doan f - 0 
....................    0x1f,0x1f,0x1f,0x00,0x00,0x00,0x00,0x00,  //doan a - 1 
....................    0x1c,0x1e,0x1f,0x1f,0x1f,0x1f,0x1f,0x1f,  //doan b - 2 
....................    0x00,0x00,0x00,0x00,0x00,0x1f,0x1f,0x1f,  //doan d - 3 
....................    0x1f,0x1f,0x1f,0x1f,0x1f,0x1f,0x1e,0x1c,  //doan c - 4 
....................    0x1f,0x1f,0x1f,0x1f,0x1f,0x1f,0x0f,0x07,  //doan e - 5 
....................    0x1f,0x1f,0x1f,0x00,0x00,0x00,0x1f,0x1f,  //doan g+d-6  
....................    0x1f,0x1f,0x1f,0x1f,0x1f,0x1f,0x1f,0x1f}; //doan i  -7 
....................     
.................... void lcd_goto_xy(signed int8 x, signed int8 y) 
.................... {  
....................    const unsigned int8 lcd_vitri[]={0x80,0xc0,0x94,0xd4}; 
....................    lcd_command(lcd_vitri[x]+y); 
*
0DD4:  CLRF   03
0DD6:  MOVF   x62,W
0DD8:  MOVFF  FF2,64
0DDC:  BCF    FF2.7
0DDE:  CALL   01B6
0DE2:  BTFSC  x64.7
0DE4:  BSF    FF2.7
0DE6:  ADDWF  x63,W
0DE8:  MOVWF  x64
0DEA:  MOVWF  x65
0DEC:  CALL   02B0
0DF0:  RETURN 0
.................... } 
....................  
.................... void xxx() 
.................... {  
....................    signed int8 x; 
....................    x= lcd_so_x[0][0]; 
....................    x= lcd_ma_8doan[0]; 
.................... } 
....................  
....................  
.................... #define   giay_htai      0x55 
.................... #define   phut_htai      0x33 
.................... #define   gio_htai       0x14 
.................... #define   thu_htai       7 
.................... #define   ngay_htai      0x20 
.................... #define   thang_htai     0x12 
.................... #define   nam_htai       0x23       
.................... #define   ma_ds          0x96 
....................  
.................... #define  addr_wr_13b07   0xd0 
.................... #define  addr_rd_13b07   0xd1 
.................... #define  addr_mem        0x00 
....................  
.................... unsigned  char    nam_ds13,thang_ds13,ngay_ds13,thu_ds13,gio_ds13, 
....................                   phut_ds13,giay_ds13,ma_ds13,control_ds13,giaytam; 
....................                                 
.................... void thiet_lap_thoi_gian_hien_tai() 
.................... {     giay_ds13   =   giay_htai;       phut_ds13  =    phut_htai;    
*
0626:  MOVLW  55
0628:  MOVWF  3A
062A:  MOVLW  33
062C:  MOVWF  39
....................       gio_ds13    =   gio_htai;        thu_ds13   =    thu_htai; 
062E:  MOVLW  14
0630:  MOVWF  38
0632:  MOVLW  07
0634:  MOVWF  37
....................       ngay_ds13   =   ngay_htai;       thang_ds13 =    thang_htai;    
0636:  MOVLW  20
0638:  MOVWF  36
063A:  MOVLW  12
063C:  MOVWF  35
....................       nam_ds13    =   nam_htai;    
063E:  MOVLW  23
0640:  MOVWF  34
....................       control_ds13 = 0x90;             ma_ds13      =   ma_ds; 
0642:  MOVLW  90
0644:  MOVWF  3C
0646:  MOVLW  96
0648:  MOVWF  3B
064A:  RETURN 0
.................... } 
....................   
.................... void nap_thoi_gian_htai_vao_ds1307() 
.................... {     i2c_start();          
064C:  BSF    F93.0
064E:  MOVLW  05
0650:  MOVWF  00
0652:  DECFSZ 00,F
0654:  BRA    0652
0656:  BSF    F93.1
0658:  MOVLW  06
065A:  MOVWF  00
065C:  DECFSZ 00,F
065E:  BRA    065C
0660:  BCF    F8A.0
0662:  BCF    F93.0
0664:  MOVLW  05
0666:  MOVWF  00
0668:  DECFSZ 00,F
066A:  BRA    0668
066C:  BCF    F8A.1
066E:  BCF    F93.1
....................       i2c_write(addr_wr_13b07);     
0670:  MOVLW  D0
0672:  MOVWF  5D
0674:  RCALL  047E
....................       i2c_write(0x00); 
0676:  CLRF   5D
0678:  RCALL  047E
....................       i2c_write(giay_ds13);        i2c_write(phut_ds13);       
067A:  MOVFF  3A,5D
067E:  RCALL  047E
0680:  MOVFF  39,5D
0684:  RCALL  047E
....................       i2c_write(gio_ds13);         i2c_write(thu_ds13);       
0686:  MOVFF  38,5D
068A:  RCALL  047E
068C:  MOVFF  37,5D
0690:  RCALL  047E
....................       i2c_write(ngay_ds13);        i2c_write(thang_ds13);             
0692:  MOVFF  36,5D
0696:  RCALL  047E
0698:  MOVFF  35,5D
069C:  RCALL  047E
....................       i2c_write(nam_ds13);         i2c_write(control_ds13);    
069E:  MOVFF  34,5D
06A2:  RCALL  047E
06A4:  MOVFF  3C,5D
06A8:  RCALL  047E
....................       i2c_write(ma_ds13); 
06AA:  MOVFF  3B,5D
06AE:  RCALL  047E
....................       i2c_stop(); 
06B0:  BCF    F93.0
06B2:  NOP   
06B4:  BSF    F93.1
06B6:  BTFSS  F81.1
06B8:  BRA    06B6
06BA:  MOVLW  05
06BC:  MOVWF  00
06BE:  DECFSZ 00,F
06C0:  BRA    06BE
06C2:  BRA    06C4
06C4:  NOP   
06C6:  BSF    F93.0
06C8:  MOVLW  05
06CA:  MOVWF  00
06CC:  DECFSZ 00,F
06CE:  BRA    06CC
06D0:  RETURN 0
.................... } 
....................      
.................... void doc_thoi_gian_tu_realtime() 
.................... {    
....................       i2c_start(); 
*
0550:  BSF    F93.0
0552:  MOVLW  05
0554:  MOVWF  00
0556:  DECFSZ 00,F
0558:  BRA    0556
055A:  BSF    F93.1
055C:  MOVLW  06
055E:  MOVWF  00
0560:  DECFSZ 00,F
0562:  BRA    0560
0564:  BCF    F8A.0
0566:  BCF    F93.0
0568:  MOVLW  05
056A:  MOVWF  00
056C:  DECFSZ 00,F
056E:  BRA    056C
0570:  BCF    F8A.1
0572:  BCF    F93.1
....................       i2c_write(addr_wr_13b07); 
0574:  MOVLW  D0
0576:  MOVWF  5D
0578:  RCALL  047E
....................       i2c_write(addr_mem);                      
057A:  CLRF   5D
057C:  RCALL  047E
....................       i2c_start();                 
057E:  BSF    F93.0
0580:  MOVLW  05
0582:  MOVWF  00
0584:  DECFSZ 00,F
0586:  BRA    0584
0588:  BSF    F93.1
058A:  MOVLW  06
058C:  MOVWF  00
058E:  DECFSZ 00,F
0590:  BRA    058E
0592:  BTFSS  F81.1
0594:  BRA    0592
0596:  BCF    F8A.0
0598:  BCF    F93.0
059A:  MOVLW  05
059C:  MOVWF  00
059E:  DECFSZ 00,F
05A0:  BRA    059E
05A2:  BCF    F8A.1
05A4:  BCF    F93.1
....................                  
....................       i2c_write(addr_rd_13b07); 
05A6:  MOVLW  D1
05A8:  MOVWF  5D
05AA:  RCALL  047E
....................       giay_ds13      =  i2c_read();               
05AC:  MOVLW  01
05AE:  MOVWF  00
05B0:  RCALL  04EA
05B2:  MOVFF  01,3A
....................       phut_ds13      =  i2c_read();              
05B6:  MOVLW  01
05B8:  MOVWF  00
05BA:  RCALL  04EA
05BC:  MOVFF  01,39
....................       gio_ds13       =  i2c_read();              
05C0:  MOVLW  01
05C2:  MOVWF  00
05C4:  RCALL  04EA
05C6:  MOVFF  01,38
....................       thu_ds13       =  i2c_read();  
05CA:  MOVLW  01
05CC:  MOVWF  00
05CE:  RCALL  04EA
05D0:  MOVFF  01,37
....................       ngay_ds13      =  i2c_read();  
05D4:  MOVLW  01
05D6:  MOVWF  00
05D8:  RCALL  04EA
05DA:  MOVFF  01,36
....................       thang_ds13     =  i2c_read();  
05DE:  MOVLW  01
05E0:  MOVWF  00
05E2:  RCALL  04EA
05E4:  MOVFF  01,35
....................       nam_ds13       =  i2c_read();  
05E8:  MOVLW  01
05EA:  MOVWF  00
05EC:  RCALL  04EA
05EE:  MOVFF  01,34
....................       control_ds13   =  i2c_read();           
05F2:  MOVLW  01
05F4:  MOVWF  00
05F6:  RCALL  04EA
05F8:  MOVFF  01,3C
....................       ma_ds13        =  i2c_read(0);     //not ack 
05FC:  CLRF   00
05FE:  RCALL  04EA
0600:  MOVFF  01,3B
....................       i2c_stop(); 
0604:  BCF    F93.0
0606:  NOP   
0608:  BSF    F93.1
060A:  BTFSS  F81.1
060C:  BRA    060A
060E:  MOVLW  05
0610:  MOVWF  00
0612:  DECFSZ 00,F
0614:  BRA    0612
0616:  BRA    0618
0618:  NOP   
061A:  BSF    F93.0
061C:  MOVLW  05
061E:  MOVWF  00
0620:  DECFSZ 00,F
0622:  BRA    0620
0624:  RETURN 0
.................... }     
....................  
....................     
.................... void doc_giay_tu_realtime() 
.................... {    
....................       i2c_start(); 
....................       i2c_write(addr_wr_13b07); 
....................       i2c_write(addr_mem);                      
....................       i2c_start();                 
....................                  
....................       i2c_write(addr_rd_13b07); 
....................       giay_ds13      =  i2c_read(0);               
....................       i2c_stop(); 
.................... }   
....................          
....................   
.................... void hien_thi_thoi_gian_ds1307 ( ) 
.................... {     lcd_command (0x8c);    
....................       lcd_data(gio_ds13/16  +0x30);    lcd_data(gio_ds13%16  +0x30); 
....................       lcd_data(' '); 
....................       lcd_data(phut_ds13/16 +0x30);    lcd_data(phut_ds13%16 +0x30); 
....................       lcd_data(' '); 
....................       lcd_data(giay_ds13/16 +0x30);    lcd_data(giay_ds13%16 +0x30); 
....................       lcd_command (0xcc);   
....................       lcd_data(ngay_ds13/16 +0x30);    lcd_data(ngay_ds13%16 +0x30); 
....................       lcd_data(' '); 
....................       lcd_data(thang_ds13/16 +0x30);   lcd_data(thang_ds13%16 +0x30); 
....................       lcd_data(' '); 
....................       lcd_data(nam_ds13/16 +0x30);     lcd_data(nam_ds13%16 +0x30);  
....................       lcd_command (0x88);  
.................... //!      lcd_data(thu_ds13/16 + 0x30);	  	 
.................... //!      if ( thu_ds13 == 8)	lcd_data("cn"); 
.................... //!      else						lcd_data(thu_ds13%16 + 0x30); 
.................... } 
....................   
....................  
....................  
....................  
.................... signed int8  i,  dv_ktl, ch_ktl, tr_ktl, j; 
.................... float lm35a, k_cach, clk_cach ; 
.................... unsigned int16 gt_do, kqadc, kq_kc ; 
.................... unsigned int8 solan, ch_ds18a, dv_ds18a, dv_rt, ch_rt, dv_kc, ch_kc, bdn; 
....................  
.................... #int_timer1 // khai bao ngat timer 
.................... void interrupt_timer1() 
.................... { 
.................... 	bdn++; 
*
01D4:  INCF   5C,F
.................... 	set_timer1(3036); 
01D6:  MOVLW  0B
01D8:  MOVWF  FCF
01DA:  MOVLW  DC
01DC:  MOVWF  FCE
01DE:  BCF    F9E.0
01E0:  GOTO   0054
.................... } 
.................... void doc_nhiet_do_lm35a() // do nhiet do lm35a 
.................... { 
.................... //!	 unsigned int16 lm35a 
.................... //!	 unsigned int8 solan 
.................... 	set_adc_channel(0); 
*
0BFA:  MOVLW  00
0BFC:  MOVWF  01
0BFE:  MOVF   FC2,W
0C00:  ANDLW  C3
0C02:  IORWF  01,W
0C04:  MOVWF  FC2
.................... 	lm35a = 0; 
0C06:  CLRF   46
0C08:  CLRF   45
0C0A:  CLRF   44
0C0C:  CLRF   43
.................... 	for ( i = 0; i < solan; i++ ) 
0C0E:  CLRF   3E
0C10:  BTFSC  3E.7
0C12:  BRA    0C1A
0C14:  MOVF   55,W
0C16:  SUBWF  3E,W
0C18:  BC    0C66
.................... 		lm35a = lm35a + read_adc(); 
0C1A:  BSF    FC2.1
0C1C:  BTFSC  FC2.1
0C1E:  BRA    0C1C
0C20:  MOVFF  FC4,03
0C24:  MOVFF  FC3,5D
0C28:  MOVFF  FC4,5E
0C2C:  RCALL  06D2
0C2E:  BCF    FD8.1
0C30:  MOVFF  46,60
0C34:  MOVFF  45,5F
0C38:  MOVFF  44,5E
0C3C:  MOVFF  43,5D
0C40:  MOVFF  03,64
0C44:  MOVFF  02,63
0C48:  MOVFF  01,62
0C4C:  MOVFF  00,61
0C50:  BRA    0708
0C52:  MOVFF  03,46
0C56:  MOVFF  02,45
0C5A:  MOVFF  01,44
0C5E:  MOVFF  00,43
0C62:  INCF   3E,F
0C64:  BRA    0C10
....................   	 
....................   lm35a = lm35a /2.046; 
0C66:  MOVFF  46,60
0C6A:  MOVFF  45,5F
0C6E:  MOVFF  44,5E
0C72:  MOVFF  43,5D
0C76:  MOVLW  AA
0C78:  MOVWF  x64
0C7A:  MOVLW  F1
0C7C:  MOVWF  x63
0C7E:  MOVLW  02
0C80:  MOVWF  x62
0C82:  MOVLW  80
0C84:  MOVWF  x61
0C86:  RCALL  0974
0C88:  MOVFF  03,46
0C8C:  MOVFF  02,45
0C90:  MOVFF  01,44
0C94:  MOVFF  00,43
....................   lm35a = lm35a / solan;	  	 
0C98:  CLRF   5E
0C9A:  MOVFF  55,5D
0C9E:  RCALL  06D2
0CA0:  MOVFF  46,60
0CA4:  MOVFF  45,5F
0CA8:  MOVFF  44,5E
0CAC:  MOVFF  43,5D
0CB0:  MOVFF  03,64
0CB4:  MOVFF  02,63
0CB8:  MOVFF  01,62
0CBC:  MOVFF  00,61
0CC0:  RCALL  0974
0CC2:  MOVFF  03,46
0CC6:  MOVFF  02,45
0CCA:  MOVFF  01,44
0CCE:  MOVFF  00,43
....................   gt_do = lm35a * 10; 
0CD2:  MOVFF  46,60
0CD6:  MOVFF  45,5F
0CDA:  MOVFF  44,5E
0CDE:  MOVFF  43,5D
0CE2:  CLRF   x64
0CE4:  CLRF   x63
0CE6:  MOVLW  20
0CE8:  MOVWF  x62
0CEA:  MOVLW  82
0CEC:  MOVWF  x61
0CEE:  BRA    0ACE
0CF0:  MOVFF  03,64
0CF4:  MOVFF  02,63
0CF8:  MOVFF  01,62
0CFC:  MOVFF  00,61
0D00:  RCALL  0BC2
0D02:  MOVFF  02,50
0D06:  MOVFF  01,4F
0D0A:  GOTO   1378 (RETURN)
.................... } 
....................  
.................... void lcd_hienthi_so_z_toado_xy(signed int8 lcd_so, x1, y1 ) // hien thi ki tu lon 
.................... { 
.................... 	unsigned int8 i; 
.................... 	lcd_goto_xy(x1, y1); 
*
0F30:  MOVFF  5E,62
0F34:  MOVFF  5F,63
0F38:  RCALL  0DD4
.................... 	for( i = 0; i < 6; i++) 
0F3A:  CLRF   x60
0F3C:  MOVF   x60,W
0F3E:  SUBLW  05
0F40:  BNC   0F90
.................... 	{ 
.................... 		if (i == 3) 
0F42:  MOVF   x60,W
0F44:  SUBLW  03
0F46:  BNZ   0F56
.................... 			lcd_goto_xy(x1 + 1, y1); 
0F48:  MOVLW  01
0F4A:  ADDWF  5E,W
0F4C:  MOVWF  x61
0F4E:  MOVWF  x62
0F50:  MOVFF  5F,63
0F54:  RCALL  0DD4
.................... 		lcd_data(lcd_so_x[lcd_so][i]);  	 
0F56:  MOVFF  5D,61
0F5A:  MOVLW  06
0F5C:  MOVWF  x62
0F5E:  BRA    0DF2
0F60:  MOVF   01,W
0F62:  CLRF   x62
0F64:  MOVWF  x61
0F66:  CLRF   03
0F68:  MOVF   x60,W
0F6A:  ADDWF  x61,W
0F6C:  MOVWF  01
0F6E:  MOVF   x62,W
0F70:  ADDWFC 03,F
0F72:  MOVF   01,W
0F74:  MOVFF  FF2,61
0F78:  BCF    FF2.7
0F7A:  CALL   00E2
0F7E:  BTFSC  x61.7
0F80:  BSF    FF2.7
0F82:  MOVWF  x61
0F84:  MOVWF  x62
0F86:  CALL   0468
.................... 		hien_thi_8led_7doan_quet(); 
0F8A:  RCALL  0EE8
0F8C:  INCF   x60,F
0F8E:  BRA    0F3C
.................... 	} 
0F90:  RETURN 0
.................... } 
....................  
.................... void giai_ma_ktl(unsigned int16 x) // giai ma ki tu lon cho lcd 
.................... { 
....................   	 
.................... 	dv_ktl = x % 10; 
*
0D50:  MOVFF  5E,64
0D54:  MOVFF  5D,63
0D58:  CLRF   x66
0D5A:  MOVLW  0A
0D5C:  MOVWF  x65
0D5E:  RCALL  0D0E
0D60:  MOVFF  00,3F
.................... 	ch_ktl = x / 10 % 10; 
0D64:  MOVFF  5E,64
0D68:  MOVFF  5D,63
0D6C:  CLRF   x66
0D6E:  MOVLW  0A
0D70:  MOVWF  x65
0D72:  RCALL  0D0E
0D74:  MOVFF  02,60
0D78:  MOVFF  01,5F
0D7C:  MOVFF  02,64
0D80:  MOVFF  01,63
0D84:  CLRF   x66
0D86:  MOVLW  0A
0D88:  MOVWF  x65
0D8A:  RCALL  0D0E
0D8C:  MOVFF  00,40
.................... 	tr_ktl = x / 100; 
0D90:  MOVFF  5E,64
0D94:  MOVFF  5D,63
0D98:  CLRF   x66
0D9A:  MOVLW  64
0D9C:  MOVWF  x65
0D9E:  RCALL  0D0E
0DA0:  MOVFF  01,41
.................... 	// xoa so 0 ki tu lon 
.................... 	if ( tr_ktl == 0) 
0DA4:  MOVF   41,F
0DA6:  BNZ   0DB4
.................... 	{ 
.................... 		tr_ktl = 10; 
0DA8:  MOVLW  0A
0DAA:  MOVWF  41
.................... 		if( ch_ktl == 0)	ch_ktl = 10; 
0DAC:  MOVF   40,F
0DAE:  BNZ   0DB4
0DB0:  MOVLW  0A
0DB2:  MOVWF  40
.................... 	} 
....................   	 
.................... 	ch_rt = (giay_ds13 / 16 % 16) ; //realtime 
0DB4:  SWAPF  3A,W
0DB6:  MOVWF  00
0DB8:  MOVLW  0F
0DBA:  ANDWF  00,F
0DBC:  MOVF   00,W
0DBE:  ANDLW  0F
0DC0:  MOVWF  59
.................... 	dv_rt = (giay_ds13 % 16) ; 
0DC2:  MOVF   3A,W
0DC4:  ANDLW  0F
0DC6:  MOVWF  58
.................... 	// xoa so 0 vo nghia 
.................... 	if ( ch_rt == 0) 
0DC8:  MOVF   59,F
0DCA:  BNZ   0DD0
.................... 		ch_rt = 10;   
0DCC:  MOVLW  0A
0DCE:  MOVWF  59
0DD0:  GOTO   1382 (RETURN)
.................... } 
....................  
.................... void giaima_8led_7doan(unsigned int16 gt_do) // giai ma 8led 7 doan 7quet  
.................... { 
.................... 	led_7dq[0] = ma7doan[ gt_do % 10 ]; 
*
0FCA:  MOVFF  5E,64
0FCE:  MOVFF  5D,63
0FD2:  CLRF   x66
0FD4:  MOVLW  0A
0FD6:  MOVWF  x65
0FD8:  RCALL  0D0E
0FDA:  MOVFF  00,5F
0FDE:  MOVFF  03,60
0FE2:  MOVFF  03,03
0FE6:  MOVF   00,W
0FE8:  MOVFF  FF2,61
0FEC:  BCF    FF2.7
0FEE:  CALL   0096
0FF2:  BTFSC  x61.7
0FF4:  BSF    FF2.7
0FF6:  MOVWF  23
.................... 	led_7dq[1] = ma7doan[ gt_do / 10 % 10 ] & 0x7f; 
0FF8:  MOVFF  5E,64
0FFC:  MOVFF  5D,63
1000:  CLRF   x66
1002:  MOVLW  0A
1004:  MOVWF  x65
1006:  RCALL  0D0E
1008:  MOVFF  02,60
100C:  MOVFF  01,5F
1010:  MOVFF  02,64
1014:  MOVFF  01,63
1018:  CLRF   x66
101A:  MOVLW  0A
101C:  MOVWF  x65
101E:  RCALL  0D0E
1020:  MOVFF  00,5F
1024:  MOVFF  03,60
1028:  MOVFF  03,03
102C:  MOVF   00,W
102E:  MOVFF  FF2,61
1032:  BCF    FF2.7
1034:  CALL   0096
1038:  BTFSC  x61.7
103A:  BSF    FF2.7
103C:  ANDLW  7F
103E:  MOVWF  24
.................... 	led_7dq[2] = ma7doan[ gt_do / 100 ]; 
1040:  MOVFF  5E,64
1044:  MOVFF  5D,63
1048:  CLRF   x66
104A:  MOVLW  64
104C:  MOVWF  x65
104E:  RCALL  0D0E
1050:  MOVFF  02,60
1054:  MOVFF  01,5F
1058:  MOVFF  02,03
105C:  MOVF   01,W
105E:  MOVFF  FF2,61
1062:  BCF    FF2.7
1064:  CALL   0096
1068:  BTFSC  x61.7
106A:  BSF    FF2.7
106C:  MOVWF  25
.................... 	led_7dq[4] = ma7doan[ giay_ds13 % 16 ]; 
106E:  MOVF   3A,W
1070:  ANDLW  0F
1072:  CLRF   03
1074:  MOVFF  FF2,5F
1078:  BCF    FF2.7
107A:  CALL   0096
107E:  BTFSC  5F.7
1080:  BSF    FF2.7
1082:  MOVWF  27
.................... 	led_7dq[5] = ma7doan[ giay_ds13/ 16 % 16 ]; 
1084:  SWAPF  3A,W
1086:  MOVWF  00
1088:  MOVLW  0F
108A:  ANDWF  00,F
108C:  MOVF   00,W
108E:  ANDLW  0F
1090:  CLRF   03
1092:  MOVFF  FF2,5F
1096:  BCF    FF2.7
1098:  CALL   0096
109C:  BTFSC  5F.7
109E:  BSF    FF2.7
10A0:  MOVWF  28
.................... 	led_7dq[6] = 0xc8 & 0x7f; 
10A2:  MOVLW  48
10A4:  MOVWF  29
.................... 	led_7dq[7] = 0xc6; 
10A6:  MOVLW  C6
10A8:  MOVWF  2A
.................... 	if ( led_7dq[2] == 0xc0) 
10AA:  MOVF   25,W
10AC:  SUBLW  C0
10AE:  BNZ   10BC
.................... 	{ 
.................... 		led_7dq[2] = 0xc0; 
10B0:  MOVLW  C0
10B2:  MOVWF  25
.................... 		if ( led_7dq[1] == 0xc0 )	led_7dq[1] = 0xff; 
10B4:  MOVF   24,W
10B6:  SUBLW  C0
10B8:  BNZ   10BC
10BA:  SETF   24
.................... 	}  	 
....................   	 
.................... 	if ( led_7dq[5] == 0xc0 )	led_7dq[5] = 0xff; 
10BC:  MOVF   28,W
10BE:  SUBLW  C0
10C0:  BNZ   10C4
10C2:  SETF   28
10C4:  GOTO   13AC (RETURN)
.................... } 
....................  
.................... void hien_thi_lcd() // hien thi lcd 
.................... { 
.................... 	//hien thi ds18a 
.................... 	lcd_goto_xy ( 3, 0); 
*
11B4:  MOVLW  03
11B6:  MOVWF  x62
11B8:  CLRF   x63
11BA:  RCALL  0DD4
.................... 	lcd_data(dv_ds18a); 
11BC:  MOVFF  57,62
11C0:  CALL   0468
.................... 	lcd_goto_xy ( 3, 18); 
11C4:  MOVLW  03
11C6:  MOVWF  x62
11C8:  MOVLW  12
11CA:  MOVWF  x63
11CC:  RCALL  0DD4
.................... 	lcd_data(ch_ds18a); 
11CE:  MOVFF  56,62
11D2:  CALL   0468
11D6:  GOTO   13E8 (RETURN)
.................... } 
....................  
.................... void giai_ma_lcd(unsigned int16 ds18a) // giai ma cho lcd 
.................... { 
.................... 	ch_ds18a = (ds18a / 10 % 10) + 0x30; 
*
1162:  MOVFF  5E,64
1166:  MOVFF  5D,63
116A:  CLRF   x66
116C:  MOVLW  0A
116E:  MOVWF  x65
1170:  RCALL  0D0E
1172:  MOVFF  02,60
1176:  MOVFF  01,5F
117A:  MOVFF  02,64
117E:  MOVFF  01,63
1182:  CLRF   x66
1184:  MOVLW  0A
1186:  MOVWF  x65
1188:  RCALL  0D0E
118A:  MOVLW  30
118C:  ADDWF  00,W
118E:  MOVWF  56
.................... 	dv_ds18a = (ds18a % 10) +0x30; 
1190:  MOVFF  5E,64
1194:  MOVFF  5D,63
1198:  CLRF   x66
119A:  MOVLW  0A
119C:  MOVWF  x65
119E:  RCALL  0D0E
11A0:  MOVLW  30
11A2:  ADDWF  00,W
11A4:  MOVWF  57
.................... 	// xoa so 0 vo nghia 
.................... 	if ( ch_ds18a == 0x30) 
11A6:  MOVF   56,W
11A8:  SUBLW  30
11AA:  BNZ   11B0
.................... 		ch_ds18a = 0x20; 
11AC:  MOVLW  20
11AE:  MOVWF  56
11B0:  GOTO   13E6 (RETURN)
....................  
.................... } 
....................  
.................... void giai_ma_hienthi_4led ( float tam ) 
.................... { 
.................... 	kq_kc = ( unsigned int16 ) tam; 
*
1210:  MOVFF  60,64
1214:  MOVFF  5F,63
1218:  MOVFF  5E,62
121C:  MOVFF  5D,61
1220:  RCALL  0BC2
1222:  MOVFF  02,54
1226:  MOVFF  01,53
.................... 	dv_kc = ma7doan[kq_kc % 10 ]; 
122A:  MOVFF  54,64
122E:  MOVFF  53,63
1232:  CLRF   x66
1234:  MOVLW  0A
1236:  MOVWF  x65
1238:  RCALL  0D0E
123A:  MOVFF  00,61
123E:  MOVFF  03,62
1242:  MOVFF  03,03
1246:  MOVF   00,W
1248:  MOVFF  FF2,63
124C:  BCF    FF2.7
124E:  CALL   0096
1252:  BTFSC  x63.7
1254:  BSF    FF2.7
1256:  MOVWF  5A
.................... 	ch_kc = ma7doan[kq_kc /10 % 10]; 
1258:  MOVFF  54,64
125C:  MOVFF  53,63
1260:  CLRF   x66
1262:  MOVLW  0A
1264:  MOVWF  x65
1266:  RCALL  0D0E
1268:  MOVFF  02,62
126C:  MOVFF  01,61
1270:  MOVFF  02,64
1274:  MOVFF  01,63
1278:  CLRF   x66
127A:  MOVLW  0A
127C:  MOVWF  x65
127E:  RCALL  0D0E
1280:  MOVFF  00,61
1284:  MOVFF  03,62
1288:  MOVFF  03,03
128C:  MOVF   00,W
128E:  MOVFF  FF2,63
1292:  BCF    FF2.7
1294:  CALL   0096
1298:  BTFSC  x63.7
129A:  BSF    FF2.7
129C:  MOVWF  5B
.................... 	if ( ch_kc == 0xc0 ) ch_kc = 0xff; 
129E:  MOVF   5B,W
12A0:  SUBLW  C0
12A2:  BNZ   12A6
12A4:  SETF   5B
.................... 	xuat_4led_7doan_4so ( 0x47, ch_kc, dv_kc, ma7doan[7]); 
12A6:  MOVLW  47
12A8:  MOVWF  x61
12AA:  MOVFF  5B,62
12AE:  MOVFF  5A,63
12B2:  MOVLW  F8
12B4:  MOVWF  x64
12B6:  BRA    11DA
12B8:  GOTO   13FA (RETURN)
.................... } 
....................  
.................... void do_kc () // do khoang cach 
.................... { 
.................... 	set_adc_channel (2); 
.................... 	delay_ms ( 1 ); 
.................... 	kqadc = 0; 
.................... 	for ( j = 0; j < 20; j++ ) 
.................... 	{ 
.................... 		kqadc = kqadc + read_adc (); 
....................    	hien_thi_8led_7doan_quet(); 
.................... 	} 
.................... 	kqadc = kqadc / 20; 
....................   	 
.................... 	if ( kqadc <= 80 )	k_cach = 80; 
.................... 		else if ((kqadc > 80) & (kqadc < 87) ) 
.................... 		{ 
.................... 			clk_cach = kqadc - 80; 
.................... 			k_cach = 80 - clk_cach/0.77; 
.................... 		} 
.................... 		else if ( kqadc == 87) k_cach = 70; 
.................... 		else if ((kqadc > 87) & (kqadc < 106) ) 
.................... 		{ 
.................... 			clk_cach = kqadc - 87; 
.................... 			k_cach = 70 - clk_cach/2.11; 
.................... 		} 
.................... 		else if ( kqadc == 106) k_cach = 60; 
.................... 		else if ((kqadc > 106) & (kqadc < 124) ) 
.................... 		{ 
.................... 			clk_cach = kqadc - 106; 
.................... 			k_cach = 60 - clk_cach / 2; 
.................... 		} 
.................... 		else if ( kqadc == 124) k_cach = 50; 
.................... 		else if ((kqadc > 124) & (kqadc < 150) ) 
.................... 		{ 
.................... 			clk_cach = kqadc - 124; 
.................... 			k_cach = 50 - clk_cach / 2.88; 
.................... 		} 
.................... 		else if ( kqadc == 150) k_cach = 40; 
.................... 		else if ((kqadc > 150) & (kqadc < 196) ) 
.................... 		{ 
.................... 			clk_cach = kqadc - 150; 
.................... 			k_cach = 40 - clk_cach/5.11; 
.................... 		} 
.................... 		else if ( kqadc == 196) k_cach = 30; 
.................... 		else if ((kqadc > 196) & (kqadc < 276) ) 
.................... 		{ 
.................... 			clk_cach = kqadc - 196; 
.................... 			k_cach = 30 - clk_cach/8.88; 
.................... 		} 
.................... 		else if ( kqadc == 276) k_cach = 20; 
.................... 		else if ((kqadc > 276) & (kqadc < 490) ) 
.................... 		{ 
.................... 			clk_cach = kqadc - 276; 
.................... 			k_cach = 20 - clk_cach/8,88; 
.................... 		} 
.................... 		else if ( kqadc == 490) k_cach =10;	  	 
.................... 	  	 
.................... 		hien_thi_8led_7doan_quet(); 
.................... } 
....................  
.................... void hien_thi_ktl() // hien thi ki tu lon len lcd 
.................... { 
.................... 	lcd_hienthi_so_z_toado_xy( dv_rt, 0, 8 ); 
*
0F92:  MOVFF  58,5D
0F96:  CLRF   5E
0F98:  MOVLW  08
0F9A:  MOVWF  5F
0F9C:  RCALL  0F30
.................... 	lcd_hienthi_so_z_toado_xy( tr_ktl, 2, 2); 
0F9E:  MOVFF  41,5D
0FA2:  MOVLW  02
0FA4:  MOVWF  5E
0FA6:  MOVWF  5F
0FA8:  RCALL  0F30
.................... 	lcd_hienthi_so_z_toado_xy( ch_ktl, 2, 8 ); 
0FAA:  MOVFF  40,5D
0FAE:  MOVLW  02
0FB0:  MOVWF  5E
0FB2:  MOVLW  08
0FB4:  MOVWF  5F
0FB6:  RCALL  0F30
.................... 	lcd_hienthi_so_z_toado_xy( dv_ktl, 2, 11); 
0FB8:  MOVFF  3F,5D
0FBC:  MOVLW  02
0FBE:  MOVWF  5E
0FC0:  MOVLW  0B
0FC2:  MOVWF  5F
0FC4:  RCALL  0F30
0FC6:  GOTO   1390 (RETURN)
.................... } 
....................  
.................... void main () 
*
12BC:  CLRF   FF8
12BE:  BCF    FD0.7
12C0:  BSF    07.7
12C2:  CLRF   18
12C4:  CLRF   1F
12C6:  CLRF   20
12C8:  CLRF   21
12CA:  CLRF   22
12CC:  CLRF   2B
12CE:  CLRF   2C
12D0:  CLRF   2D
12D2:  MOVF   FC1,W
12D4:  ANDLW  C0
12D6:  IORLW  0F
12D8:  MOVWF  FC1
12DA:  MOVLW  07
12DC:  MOVWF  FB4
12DE:  SETF   23
12E0:  SETF   24
12E2:  SETF   25
12E4:  SETF   26
12E6:  SETF   27
12E8:  SETF   28
12EA:  SETF   29
12EC:  SETF   2A
.................... { 
.................... 	set_up_port_ic_chot(); 
12EE:  GOTO   01E4
....................   	 
.................... 	//do nhiet do lm35a lm35b 
.................... 	setup_adc(adc_clock_div_32); 
12F2:  MOVF   FC0,W
12F4:  ANDLW  C0
12F6:  IORLW  02
12F8:  MOVWF  FC0
12FA:  BSF    FC0.7
12FC:  BSF    FC2.0
.................... //!	setup_adc_ports(an0_to_an1 | vss_vdd); 
.................... 	setup_adc_ports(an0_to_an1 | vss_vdd); //khi su dung 1 kenh 
12FE:  MOVF   FC1,W
1300:  ANDLW  C0
1302:  IORLW  0D
1304:  MOVWF  FC1
....................   	 
.................... 	setup_lcd(); // khoi tao lcd 
1306:  GOTO   02EC
....................   	 
.................... 	khoi_tao_ds18b20();  
130A:  GOTO   043A
....................   	 
.................... 	//set timer 
.................... 	setup_timer_1(t1_internal | t1_div_by_8); 
130E:  MOVLW  B5
1310:  MOVWF  FCD
.................... 	set_timer1(3036); 
1312:  MOVLW  0B
1314:  MOVWF  FCF
1316:  MOVLW  DC
1318:  MOVWF  FCE
.................... 	enable_interrupts(global); 
131A:  MOVLW  C0
131C:  IORWF  FF2,F
.................... 	enable_interrupts(int_timer1); 
131E:  BSF    F9D.0
....................   	 
.................... 	lcd_command(0x40); 
1320:  MOVLW  40
1322:  MOVWF  x65
1324:  CALL   02B0
.................... 	for( i = 0; i < 64; i++) 
1328:  CLRF   3E
132A:  BTFSC  3E.7
132C:  BRA    1334
132E:  MOVF   3E,W
1330:  SUBLW  3F
1332:  BNC   1352
.................... 		lcd_data(lcd_ma_8doan[i]); 
1334:  CLRF   03
1336:  MOVF   3E,W
1338:  MOVFF  FF2,5D
133C:  BCF    FF2.7
133E:  CALL   015C
1342:  BTFSC  5D.7
1344:  BSF    FF2.7
1346:  MOVWF  5D
1348:  MOVWF  x62
134A:  CALL   0468
134E:  INCF   3E,F
1350:  BRA    132A
....................   	 
....................   	 
.................... 	doc_thoi_gian_tu_realtime ();  // realtime 
1352:  CALL   0550
.................... 	if (ma_ds13 != ma_ds) 
1356:  MOVF   3B,W
1358:  SUBLW  96
135A:  BZ    1364
....................    { 
....................       thiet_lap_thoi_gian_hien_tai (); 
135C:  CALL   0626
....................       nap_thoi_gian_htai_vao_ds1307 () ; 
1360:  CALL   064C
....................    }    
....................    doc_thoi_gian_tu_realtime (); 
1364:  CALL   0550
....................    giaytam = giay_ds13;    
1368:  MOVFF  3A,3D
....................  
.................... 	solan = 10; gt_do = 0; bdn = 0; 
136C:  MOVLW  0A
136E:  MOVWF  55
1370:  CLRF   50
1372:  CLRF   4F
1374:  CLRF   5C
.................... 	while ( true ) 
.................... 	{ 
.................... 		doc_nhiet_do_lm35a(); 
1376:  BRA    0BFA
.................... 		//giai_ma_do_nhietdo_lm35(lm35a); 
.................... 	  	 
.................... 		giai_ma_ktl(gt_do); // giai ma ki tu lon 
1378:  MOVFF  50,5E
137C:  MOVFF  4F,5D
1380:  BRA    0D50
.................... 		lcd_hienthi_so_z_toado_xy( ch_rt, 0, 5); 
1382:  MOVFF  59,5D
1386:  CLRF   5E
1388:  MOVLW  05
138A:  MOVWF  5F
138C:  RCALL  0F30
.................... 		//hien thi len lcd 
.................... 		hien_thi_ktl(); 
138E:  BRA    0F92
.................... 		lcd_goto_xy(3, 5); 
1390:  MOVLW  03
1392:  MOVWF  x62
1394:  MOVLW  05
1396:  MOVWF  x63
1398:  RCALL  0DD4
.................... 		lcd_data(3); 
139A:  MOVLW  03
139C:  MOVWF  x62
139E:  CALL   0468
.................... 	  	 
.................... 		// hien thi 8 led 7 doan  
.................... 		giaima_8led_7doan(gt_do); 
13A2:  MOVFF  50,5E
13A6:  MOVFF  4F,5D
13AA:  BRA    0FCA
.................... 		if ( bdn < 30) 
13AC:  MOVF   5C,W
13AE:  SUBLW  1D
13B0:  BNC   13B6
.................... 			hien_thi_8led_7doan_quet(); 
13B2:  RCALL  0EE8
13B4:  BRA    13BC
.................... 		else 
.................... 			bdn = 30 -bdn; 
13B6:  MOVLW  1E
13B8:  BSF    FD8.0
13BA:  SUBFWB 5C,F
.................... 	  	 
.................... 		//do 18b20 
.................... 		if(touch_present())	// do nhiet do ds18b20 
13BC:  CALL   034E
13C0:  MOVF   01,F
13C2:  BZ    13DC
.................... 		{ 
.................... 			doc_giatri_ds18b20(); 
13C4:  BRA    1126
.................... 			ds18a = ds18a >> 4; 
13C6:  RRCF   32,F
13C8:  RRCF   31,F
13CA:  RRCF   32,F
13CC:  RRCF   31,F
13CE:  RRCF   32,F
13D0:  RRCF   31,F
13D2:  RRCF   32,F
13D4:  RRCF   31,F
13D6:  MOVLW  0F
13D8:  ANDWF  32,F
.................... 			ds18a = ds18a & 0x0ff; 
13DA:  CLRF   32
.................... 		} 
.................... 		// hien thi tren lcd nhiet do tu ds18b20 
.................... 		giai_ma_lcd(ds18a); 
13DC:  MOVFF  32,5E
13E0:  MOVFF  31,5D
13E4:  BRA    1162
.................... 		hien_thi_lcd(); 
13E6:  BRA    11B4
.................... 	  	 
.................... 		giai_ma_hienthi_4led ( k_cach ); // hien thi khoang cach len 4 led 7 doan 
13E8:  MOVFF  4A,60
13EC:  MOVFF  49,5F
13F0:  MOVFF  48,5E
13F4:  MOVFF  47,5D
13F8:  BRA    1210
.................... 	  	 
.................... 		//realtime 
.................... 		if (ma_ds13 != ma_ds)  
13FA:  MOVF   3B,W
13FC:  SUBLW  96
13FE:  BZ    1408
.................... 	   { 
.................... 	      thiet_lap_thoi_gian_hien_tai (); 
1400:  CALL   0626
.................... 	      nap_thoi_gian_htai_vao_ds1307 () ; 
1404:  CALL   064C
.................... 	   } 
.................... 	   // doc thoi gian thuc 
.................... 	   doc_thoi_gian_tu_realtime (); 
1408:  CALL   0550
140C:  BRA    1376
.................... 	} 
.................... } 
140E:  SLEEP 

Configuration Fuses:
   Word  1: CC27   PLL12 CPUDIV1 USBDIV HS FCMEN IESO
   Word  2: 1E3E   PUT BROWNOUT BORV21 VREGEN NOWDT WDT32768
   Word  3: 8700   CCP2C1 PBADEN LPT1OSC MCLR
   Word  4: 00A1   STVREN NOLVP ICSP2 NOXINST NODEBUG
   Word  5: C00F   NOPROTECT NOCPB NOCPD
   Word  6: E00F   NOWRT NOWRTC NOWRTB NOWRTD
   Word  7: 400F   NOEBTR NOEBTRB
